ARM GAS  /tmp/ccIOiVfl.s 			page 1


   1              		.cpu cortex-m4
   2              		.eabi_attribute 27, 1
   3              		.eabi_attribute 28, 1
   4              		.eabi_attribute 20, 1
   5              		.eabi_attribute 21, 1
   6              		.eabi_attribute 23, 3
   7              		.eabi_attribute 24, 1
   8              		.eabi_attribute 25, 1
   9              		.eabi_attribute 26, 1
  10              		.eabi_attribute 30, 4
  11              		.eabi_attribute 34, 1
  12              		.eabi_attribute 18, 4
  13              		.file	"_unit.c"
  14              		.text
  15              	.Ltext0:
  16              		.cfi_sections	.debug_frame
  17              		.align	1
  18              		.weak	_hook_process
  19              		.arch armv7e-m
  20              		.syntax unified
  21              		.thumb
  22              		.thumb_func
  23              		.fpu fpv4-sp-d16
  24              		.type	_hook_process, %function
  25              	_hook_process:
  26              	.LVL0:
  27              	.LFB230:
  28              		.file 1 "/workspace/nutekt-digital/tapewarble/tpl/_unit.c"
  29              		.loc 1 130 1 view -0
  30              		.cfi_startproc
  31              		@ args = 4, pretend = 0, frame = 0
  32              		@ frame_needed = 0, uses_anonymous_args = 0
  33              		@ link register save eliminated.
  34              		.loc 1 131 3 view .LVU1
  35              		.loc 1 132 3 view .LVU2
  36              		.loc 1 133 3 view .LVU3
  37              		.loc 1 134 3 view .LVU4
  38              		.loc 1 135 3 view .LVU5
  39              		.loc 1 136 1 is_stmt 0 view .LVU6
  40 0000 7047     		bx	lr
  41              		.cfi_endproc
  42              	.LFE230:
  43              		.size	_hook_process, .-_hook_process
  44              		.align	1
  45              		.weak	_hook_suspend
  46              		.syntax unified
  47              		.thumb
  48              		.thumb_func
  49              		.fpu fpv4-sp-d16
  50              		.type	_hook_suspend, %function
  51              	_hook_suspend:
  52              	.LFB231:
  53              		.loc 1 140 1 is_stmt 1 view -0
  54              		.cfi_startproc
  55              		@ args = 0, pretend = 0, frame = 0
  56              		@ frame_needed = 0, uses_anonymous_args = 0
  57              		@ link register save eliminated.
ARM GAS  /tmp/ccIOiVfl.s 			page 2


  58              		.loc 1 142 1 view .LVU8
  59 0002 7047     		bx	lr
  60              		.cfi_endproc
  61              	.LFE231:
  62              		.size	_hook_suspend, .-_hook_suspend
  63              		.align	1
  64              		.weak	_hook_param
  65              		.syntax unified
  66              		.thumb
  67              		.thumb_func
  68              		.fpu fpv4-sp-d16
  69              		.type	_hook_param, %function
  70              	_hook_param:
  71              	.LVL1:
  72              	.LFB233:
  73              		.loc 1 152 1 view -0
  74              		.cfi_startproc
  75              		@ args = 0, pretend = 0, frame = 0
  76              		@ frame_needed = 0, uses_anonymous_args = 0
  77              		@ link register save eliminated.
  78              		.loc 1 153 3 view .LVU10
  79              		.loc 1 154 3 view .LVU11
  80              		.loc 1 155 1 is_stmt 0 view .LVU12
  81 0004 7047     		bx	lr
  82              		.cfi_endproc
  83              	.LFE233:
  84              		.size	_hook_param, .-_hook_param
  85              		.align	1
  86              		.weak	_hook_resume
  87              		.syntax unified
  88              		.thumb
  89              		.thumb_func
  90              		.fpu fpv4-sp-d16
  91              		.type	_hook_resume, %function
  92              	_hook_resume:
  93              	.LFB235:
  94              		.cfi_startproc
  95              		@ args = 0, pretend = 0, frame = 0
  96              		@ frame_needed = 0, uses_anonymous_args = 0
  97              		@ link register save eliminated.
  98 0006 7047     		bx	lr
  99              		.cfi_endproc
 100              	.LFE235:
 101              		.size	_hook_resume, .-_hook_resume
 102              		.align	1
 103              		.weak	_hook_init
 104              		.syntax unified
 105              		.thumb
 106              		.thumb_func
 107              		.fpu fpv4-sp-d16
 108              		.type	_hook_init, %function
 109              	_hook_init:
 110              	.LVL2:
 111              	.LFB229:
 112              		.loc 1 121 1 is_stmt 1 view -0
 113              		.cfi_startproc
 114              		@ args = 0, pretend = 0, frame = 0
ARM GAS  /tmp/ccIOiVfl.s 			page 3


 115              		@ frame_needed = 0, uses_anonymous_args = 0
 116              		@ link register save eliminated.
 117              		.loc 1 122 3 view .LVU14
 118              		.loc 1 123 3 view .LVU15
 119              		.loc 1 124 1 is_stmt 0 view .LVU16
 120 0008 7047     		bx	lr
 121              		.cfi_endproc
 122              	.LFE229:
 123              		.size	_hook_init, .-_hook_init
 124              		.align	1
 125              		.global	_entry
 126              		.syntax unified
 127              		.thumb
 128              		.thumb_func
 129              		.fpu fpv4-sp-d16
 130              		.type	_entry, %function
 131              	_entry:
 132              	.LVL3:
 133              	.LFB228:
 134              		.loc 1 99 1 is_stmt 1 view -0
 135              		.cfi_startproc
 136              		@ args = 0, pretend = 0, frame = 8
 137              		@ frame_needed = 0, uses_anonymous_args = 0
 138              		.loc 1 101 3 view .LVU18
 139              		.loc 1 102 3 view .LVU19
 140              		.loc 1 104 3 view .LVU20
 141              		.loc 1 101 24 is_stmt 0 view .LVU21
 142 000a 0F4B     		ldr	r3, .L15
 143              		.loc 1 104 3 view .LVU22
 144 000c 0F4A     		ldr	r2, .L15+4
 145              		.loc 1 99 1 view .LVU23
 146 000e 73B5     		push	{r0, r1, r4, r5, r6, lr}
 147              		.cfi_def_cfa_offset 24
 148              		.cfi_offset 4, -16
 149              		.cfi_offset 5, -12
 150              		.cfi_offset 6, -8
 151              		.cfi_offset 14, -4
 152              		.loc 1 105 16 view .LVU24
 153 0010 0024     		movs	r4, #0
 154              	.LVL4:
 155              	.L7:
 156              		.loc 1 104 10 is_stmt 1 view .LVU25
 157              		.loc 1 104 3 is_stmt 0 view .LVU26
 158 0012 9342     		cmp	r3, r2
 159 0014 0AD1     		bne	.L8
 160              		.loc 1 108 3 is_stmt 1 view .LVU27
 161              		.loc 1 108 41 is_stmt 0 view .LVU28
 162 0016 0E4D     		ldr	r5, .L15+8
 163 0018 0E4C     		ldr	r4, .L15+12
 164 001a 641B     		subs	r4, r4, r5
 165 001c A410     		asrs	r4, r4, #2
 166              	.LVL5:
 167              		.loc 1 109 3 is_stmt 1 view .LVU29
 168              	.LBB2:
 169              		.loc 1 109 8 view .LVU30
 170              		.loc 1 109 15 is_stmt 0 view .LVU31
 171 001e 0026     		movs	r6, #0
ARM GAS  /tmp/ccIOiVfl.s 			page 4


 172              	.LVL6:
 173              	.L9:
 174              		.loc 1 109 22 is_stmt 1 discriminator 1 view .LVU32
 175              		.loc 1 109 3 is_stmt 0 discriminator 1 view .LVU33
 176 0020 A642     		cmp	r6, r4
 177 0022 06D1     		bne	.L11
 178              	.LBE2:
 179              		.loc 1 116 3 is_stmt 1 view .LVU34
 180 0024 FFF7FEFF 		bl	_hook_init
 181              	.LVL7:
 182              		.loc 1 117 1 is_stmt 0 view .LVU35
 183 0028 02B0     		add	sp, sp, #8
 184              		.cfi_remember_state
 185              		.cfi_def_cfa_offset 16
 186              		@ sp needed
 187 002a 70BD     		pop	{r4, r5, r6, pc}
 188              	.LVL8:
 189              	.L8:
 190              		.cfi_restore_state
 191              		.loc 1 105 5 is_stmt 1 view .LVU36
 192              		.loc 1 105 16 is_stmt 0 view .LVU37
 193 002c 03F8014B 		strb	r4, [r3], #1
 194              	.LVL9:
 195              		.loc 1 105 16 view .LVU38
 196 0030 EFE7     		b	.L7
 197              	.LVL10:
 198              	.L11:
 199              	.LBB4:
 200              	.LBB3:
 201              		.loc 1 110 5 is_stmt 1 view .LVU39
 202              		.loc 1 110 17 is_stmt 0 view .LVU40
 203 0032 55F8043B 		ldr	r3, [r5], #4
 204              	.LVL11:
 205              		.loc 1 111 5 is_stmt 1 view .LVU41
 206              		.loc 1 111 8 is_stmt 0 view .LVU42
 207 0036 23B1     		cbz	r3, .L10
 208 0038 CDE90001 		strd	r0, r1, [sp]
 209              		.loc 1 112 7 is_stmt 1 view .LVU43
 210 003c 9847     		blx	r3
 211              	.LVL12:
 212              		.loc 1 112 7 is_stmt 0 view .LVU44
 213 003e DDE90001 		ldrd	r0, r1, [sp]
 214              	.L10:
 215              	.LBE3:
 216              		.loc 1 109 31 is_stmt 1 discriminator 2 view .LVU45
 217 0042 0136     		adds	r6, r6, #1
 218              	.LVL13:
 219              		.loc 1 109 31 is_stmt 0 discriminator 2 view .LVU46
 220 0044 ECE7     		b	.L9
 221              	.L16:
 222 0046 00BF     		.align	2
 223              	.L15:
 224 0048 00000000 		.word	_bss_start
 225 004c 00000000 		.word	_bss_end
 226 0050 00000000 		.word	__init_array_start
 227 0054 00000000 		.word	__init_array_end
 228              	.LBE4:
ARM GAS  /tmp/ccIOiVfl.s 			page 5


 229              		.cfi_endproc
 230              	.LFE228:
 231              		.size	_entry, .-_entry
 232              		.section	.hooks,"a"
 233              		.type	s_hook_table, %object
 234              		.size	s_hook_table, 64
 235              	s_hook_table:
 236 0000 554D4F44 		.ascii	"UMOD"
 237 0004 00010100 		.4byte	65792
 238 0008 03       		.byte	3
 239 0009 0000     		.ascii	"\000\000"
 240 000b 00000000 		.space	5
 240      00
 241 0010 00000000 		.4byte	_entry
 242 0014 00000000 		.4byte	_hook_process
 243 0018 00000000 		.4byte	_hook_suspend
 244 001c 00000000 		.4byte	_hook_resume
 245 0020 00000000 		.4byte	_hook_param
 246 0024 00000000 		.4byte	0
 247 0028 00000000 		.space	24
 247      00000000 
 247      00000000 
 247      00000000 
 247      00000000 
 248              		.text
 249              	.Letext0:
 250              		.file 2 "/usr/lib/gcc/arm-none-eabi/9.2.1/include/stdint.h"
 251              		.file 3 "/usr/lib/gcc/arm-none-eabi/9.2.1/include/stddef.h"
 252              		.file 4 "/usr/include/newlib/sys/_types.h"
 253              		.file 5 "/usr/include/newlib/sys/reent.h"
 254              		.file 6 "/usr/include/newlib/sys/lock.h"
 255              		.file 7 "/workspace/nutekt-digital/inc/fx_api.h"
 256              		.file 8 "/workspace/nutekt-digital/inc/usermodfx.h"