ARM GAS  /tmp/ccIOiVfl.s 			page 1


   1              		.cpu cortex-m4
   2              		.eabi_attribute 27, 1
   3              		.eabi_attribute 28, 1
   4              		.eabi_attribute 20, 1
   5              		.eabi_attribute 21, 1
   6              		.eabi_attribute 23, 3
   7              		.eabi_attribute 24, 1
   8              		.eabi_attribute 25, 1
   9              		.eabi_attribute 26, 1
  10              		.eabi_attribute 30, 4
  11              		.eabi_attribute 34, 1
  12              		.eabi_attribute 18, 4
  13              		.file	"_unit.c"
  14              		.text
  15              	.Ltext0:
  16              		.cfi_sections	.debug_frame
  17              		.align	1
  18              		.weak	_hook_process
  19              		.arch armv7e-m
  20              		.syntax unified
  21              		.thumb
  22              		.thumb_func
  23              		.fpu fpv4-sp-d16
  24              		.type	_hook_process, %function
  25              	_hook_process:
  26              	.LVL0:
  27              	.LFB230:
  28              		.file 1 "/workspace/nutekt-digital/tapewarble/tpl/_unit.c"
  29              		.loc 1 130 1 view -0
  30              		.cfi_startproc
  31              		@ args = 4, pretend = 0, frame = 0
  32              		@ frame_needed = 0, uses_anonymous_args = 0
  33              		@ link register save eliminated.
  34              		.loc 1 131 3 view .LVU1
  35              		.loc 1 132 3 view .LVU2
  36              		.loc 1 133 3 view .LVU3
  37              		.loc 1 134 3 view .LVU4
  38              		.loc 1 135 3 view .LVU5
  39              		.loc 1 136 1 is_stmt 0 view .LVU6
  40 0000 7047     		bx	lr
  41              		.cfi_endproc
  42              	.LFE230:
  43              		.size	_hook_process, .-_hook_process
  44              		.align	1
  45              		.weak	_hook_suspend
  46              		.syntax unified
  47              		.thumb
  48              		.thumb_func
  49              		.fpu fpv4-sp-d16
  50              		.type	_hook_suspend, %function
  51              	_hook_suspend:
  52              	.LFB231:
  53              		.loc 1 140 1 is_stmt 1 view -0
  54              		.cfi_startproc
  55              		@ args = 0, pretend = 0, frame = 0
  56              		@ frame_needed = 0, uses_anonymous_args = 0
  57              		@ link register save eliminated.
ARM GAS  /tmp/ccIOiVfl.s 			page 2


  58              		.loc 1 142 1 view .LVU8
  59 0002 7047     		bx	lr
  60              		.cfi_endproc
  61              	.LFE231:
  62              		.size	_hook_suspend, .-_hook_suspend
  63              		.align	1
  64              		.weak	_hook_param
  65              		.syntax unified
  66              		.thumb
  67              		.thumb_func
  68              		.fpu fpv4-sp-d16
  69              		.type	_hook_param, %function
  70              	_hook_param:
  71              	.LVL1:
  72              	.LFB233:
  73              		.loc 1 152 1 view -0
  74              		.cfi_startproc
  75              		@ args = 0, pretend = 0, frame = 0
  76              		@ frame_needed = 0, uses_anonymous_args = 0
  77              		@ link register save eliminated.
  78              		.loc 1 153 3 view .LVU10
  79              		.loc 1 154 3 view .LVU11
  80              		.loc 1 155 1 is_stmt 0 view .LVU12
  81 0004 7047     		bx	lr
  82              		.cfi_endproc
  83              	.LFE233:
  84              		.size	_hook_param, .-_hook_param
  85              		.align	1
  86              		.weak	_hook_resume
  87              		.syntax unified
  88              		.thumb
  89              		.thumb_func
  90              		.fpu fpv4-sp-d16
  91              		.type	_hook_resume, %function
  92              	_hook_resume:
  93              	.LFB235:
  94              		.cfi_startproc
  95              		@ args = 0, pretend = 0, frame = 0
  96              		@ frame_needed = 0, uses_anonymous_args = 0
  97              		@ link register save eliminated.
  98 0006 7047     		bx	lr
  99              		.cfi_endproc
 100              	.LFE235:
 101              		.size	_hook_resume, .-_hook_resume
 102              		.align	1
 103              		.weak	_hook_init
 104              		.syntax unified
 105              		.thumb
 106              		.thumb_func
 107              		.fpu fpv4-sp-d16
 108              		.type	_hook_init, %function
 109              	_hook_init:
 110              	.LVL2:
 111              	.LFB229:
 112              		.loc 1 121 1 is_stmt 1 view -0
 113              		.cfi_startproc
 114              		@ args = 0, pretend = 0, frame = 0
ARM GAS  /tmp/ccIOiVfl.s 			page 3


 115              		@ frame_needed = 0, uses_anonymous_args = 0
 116              		@ link register save eliminated.
 117              		.loc 1 122 3 view .LVU14
 118              		.loc 1 123 3 view .LVU15
 119              		.loc 1 124 1 is_stmt 0 view .LVU16
 120 0008 7047     		bx	lr
 121              		.cfi_endproc
 122              	.LFE229:
 123              		.size	_hook_init, .-_hook_init
 124              		.align	1
 125              		.global	_entry
 126              		.syntax unified
 127              		.thumb
 128              		.thumb_func
 129              		.fpu fpv4-sp-d16
 130              		.type	_entry, %function
 131              	_entry:
 132              	.LVL3:
 133              	.LFB228:
 134              		.loc 1 99 1 is_stmt 1 view -0
 135              		.cfi_startproc
 136              		@ args = 0, pretend = 0, frame = 8
 137              		@ frame_needed = 0, uses_anonymous_args = 0
 138              		.loc 1 101 3 view .LVU18
 139              		.loc 1 102 3 view .LVU19
 140              		.loc 1 104 3 view .LVU20
 141              		.loc 1 101 24 is_stmt 0 view .LVU21
 142 000a 0F4B     		ldr	r3, .L15
 143              		.loc 1 104 3 view .LVU22
 144 000c 0F4A     		ldr	r2, .L15+4
 145              		.loc 1 99 1 view .LVU23
 146 000e 73B5     		push	{r0, r1, r4, r5, r6, lr}
 147              		.cfi_def_cfa_offset 24
 148              		.cfi_offset 4, -16
 149              		.cfi_offset 5, -12
 150              		.cfi_offset 6, -8
 151              		.cfi_offset 14, -4
 152              		.loc 1 105 16 view .LVU24
 153 0010 0024     		movs	r4, #0
 154              	.LVL4:
 155              	.L7:
 156              		.loc 1 104 10 is_stmt 1 view .LVU25
 157              		.loc 1 104 3 is_stmt 0 view .LVU26
 158 0012 9342     		cmp	r3, r2
 159 0014 0AD1     		bne	.L8
 160              		.loc 1 108 3 is_stmt 1 view .LVU27
 161              		.loc 1 108 41 is_stmt 0 view .LVU28
 162 0016 0E4D     		ldr	r5, .L15+8
 163 0018 0E4C     		ldr	r4, .L15+12
 164 001a 641B     		subs	r4, r4, r5
 165 001c A410     		asrs	r4, r4, #2
 166              	.LVL5:
 167              		.loc 1 109 3 is_stmt 1 view .LVU29
 168              	.LBB2:
 169              		.loc 1 109 8 view .LVU30
 170              		.loc 1 109 15 is_stmt 0 view .LVU31
 171 001e 0026     		movs	r6, #0
ARM GAS  /tmp/ccIOiVfl.s 			page 4


 172              	.LVL6:
 173              	.L9:
 174              		.loc 1 109 22 is_stmt 1 discriminator 1 view .LVU32
 175              		.loc 1 109 3 is_stmt 0 discriminator 1 view .LVU33
 176 0020 A642     		cmp	r6, r4
 177 0022 06D1     		bne	.L11
 178              	.LBE2:
 179              		.loc 1 116 3 is_stmt 1 view .LVU34
 180 0024 FFF7FEFF 		bl	_hook_init
 181              	.LVL7:
 182              		.loc 1 117 1 is_stmt 0 view .LVU35
 183 0028 02B0     		add	sp, sp, #8
 184              		.cfi_remember_state
 185              		.cfi_def_cfa_offset 16
 186              		@ sp needed
 187 002a 70BD     		pop	{r4, r5, r6, pc}
 188              	.LVL8:
 189              	.L8:
 190              		.cfi_restore_state
 191              		.loc 1 105 5 is_stmt 1 view .LVU36
 192              		.loc 1 105 16 is_stmt 0 view .LVU37
 193 002c 03F8014B 		strb	r4, [r3], #1
 194              	.LVL9:
 195              		.loc 1 105 16 view .LVU38
 196 0030 EFE7     		b	.L7
 197              	.LVL10:
 198              	.L11:
 199              	.LBB4:
 200              	.LBB3:
 201              		.loc 1 110 5 is_stmt 1 view .LVU39
 202              		.loc 1 110 17 is_stmt 0 view .LVU40
 203 0032 55F8043B 		ldr	r3, [r5], #4
 204              	.LVL11:
 205              		.loc 1 111 5 is_stmt 1 view .LVU41
 206              		.loc 1 111 8 is_stmt 0 view .LVU42
 207 0036 23B1     		cbz	r3, .L10
 208 0038 CDE90001 		strd	r0, r1, [sp]
 209              		.loc 1 112 7 is_stmt 1 view .LVU43
 210 003c 9847     		blx	r3
 211              	.LVL12:
 212              		.loc 1 112 7 is_stmt 0 view .LVU44
 213 003e DDE90001 		ldrd	r0, r1, [sp]
 214              	.L10:
 215              	.LBE3:
 216              		.loc 1 109 31 is_stmt 1 discriminator 2 view .LVU45
 217 0042 0136     		adds	r6, r6, #1
 218              	.LVL13:
 219              		.loc 1 109 31 is_stmt 0 discriminator 2 view .LVU46
 220 0044 ECE7     		b	.L9
 221              	.L16:
 222 0046 00BF     		.align	2
 223              	.L15:
 224 0048 00000000 		.word	_bss_start
 225 004c 00000000 		.word	_bss_end
 226 0050 00000000 		.word	__init_array_start
 227 0054 00000000 		.word	__init_array_end
 228              	.LBE4:
ARM GAS  /tmp/ccIOiVfl.s 			page 5


 229              		.cfi_endproc
 230              	.LFE228:
 231              		.size	_entry, .-_entry
 232              		.section	.hooks,"a"
 233              		.type	s_hook_table, %object
 234              		.size	s_hook_table, 64
 235              	s_hook_table:
 236 0000 554D4F44 		.ascii	"UMOD"
 237 0004 00010100 		.4byte	65792
 238 0008 03       		.byte	3
 239 0009 0000     		.ascii	"\000\000"
 240 000b 00000000 		.space	5
 240      00
 241 0010 00000000 		.4byte	_entry
 242 0014 00000000 		.4byte	_hook_process
 243 0018 00000000 		.4byte	_hook_suspend
 244 001c 00000000 		.4byte	_hook_resume
 245 0020 00000000 		.4byte	_hook_param
 246 0024 00000000 		.4byte	0
 247 0028 00000000 		.space	24
 247      00000000 
 247      00000000 
 247      00000000 
 247      00000000 
 248              		.text
 249              	.Letext0:
 250              		.file 2 "/usr/lib/gcc/arm-none-eabi/9.2.1/include/stdint.h"
 251              		.file 3 "/usr/lib/gcc/arm-none-eabi/9.2.1/include/stddef.h"
 252              		.file 4 "/usr/include/newlib/sys/_types.h"
 253              		.file 5 "/usr/include/newlib/sys/reent.h"
 254              		.file 6 "/usr/include/newlib/sys/lock.h"
 255              		.file 7 "/workspace/nutekt-digital/inc/fx_api.h"
 256              		.file 8 "/workspace/nutekt-digital/inc/usermodfx.h"
 257              		.section	.debug_info,"",%progbits
 258              	.Ldebug_info0:
 259 0000 7E0D0000 		.4byte	0xd7e
 260 0004 0400     		.2byte	0x4
 261 0006 00000000 		.4byte	.Ldebug_abbrev0
 262 000a 04       		.byte	0x4
 263 000b 01       		.uleb128 0x1
 264 000c 46020000 		.4byte	.LASF171
 265 0010 0C       		.byte	0xc
 266 0011 FA050000 		.4byte	.LASF172
 267 0015 66070000 		.4byte	.LASF173
 268 0019 00000000 		.4byte	.Ltext0
 269 001d 58000000 		.4byte	.Letext0-.Ltext0
 270 0021 00000000 		.4byte	.Ldebug_line0
 271 0025 02       		.uleb128 0x2
 272 0026 01       		.byte	0x1
 273 0027 06       		.byte	0x6
 274 0028 A7070000 		.4byte	.LASF0
 275 002c 02       		.uleb128 0x2
 276 002d 02       		.byte	0x2
 277 002e 05       		.byte	0x5
 278 002f 75050000 		.4byte	.LASF1
 279 0033 03       		.uleb128 0x3
 280 0034 F1060000 		.4byte	.LASF4
ARM GAS  /tmp/ccIOiVfl.s 			page 6


 281 0038 02       		.byte	0x2
 282 0039 28       		.byte	0x28
 283 003a 18       		.byte	0x18
 284 003b 3F000000 		.4byte	0x3f
 285 003f 02       		.uleb128 0x2
 286 0040 04       		.byte	0x4
 287 0041 05       		.byte	0x5
 288 0042 A4050000 		.4byte	.LASF2
 289 0046 02       		.uleb128 0x2
 290 0047 08       		.byte	0x8
 291 0048 05       		.byte	0x5
 292 0049 59040000 		.4byte	.LASF3
 293 004d 03       		.uleb128 0x3
 294 004e 0E040000 		.4byte	.LASF5
 295 0052 02       		.byte	0x2
 296 0053 2E       		.byte	0x2e
 297 0054 18       		.byte	0x18
 298 0055 5E000000 		.4byte	0x5e
 299 0059 04       		.uleb128 0x4
 300 005a 4D000000 		.4byte	0x4d
 301 005e 02       		.uleb128 0x2
 302 005f 01       		.byte	0x1
 303 0060 08       		.byte	0x8
 304 0061 0D070000 		.4byte	.LASF6
 305 0065 02       		.uleb128 0x2
 306 0066 02       		.byte	0x2
 307 0067 07       		.byte	0x7
 308 0068 BA070000 		.4byte	.LASF7
 309 006c 03       		.uleb128 0x3
 310 006d 0B010000 		.4byte	.LASF8
 311 0071 02       		.byte	0x2
 312 0072 34       		.byte	0x34
 313 0073 19       		.byte	0x19
 314 0074 7D000000 		.4byte	0x7d
 315 0078 04       		.uleb128 0x4
 316 0079 6C000000 		.4byte	0x6c
 317 007d 02       		.uleb128 0x2
 318 007e 04       		.byte	0x4
 319 007f 07       		.byte	0x7
 320 0080 B0060000 		.4byte	.LASF9
 321 0084 02       		.uleb128 0x2
 322 0085 08       		.byte	0x8
 323 0086 07       		.byte	0x7
 324 0087 5A010000 		.4byte	.LASF10
 325 008b 05       		.uleb128 0x5
 326 008c 04       		.byte	0x4
 327 008d 05       		.byte	0x5
 328 008e 696E7400 		.ascii	"int\000"
 329 0092 02       		.uleb128 0x2
 330 0093 04       		.byte	0x4
 331 0094 07       		.byte	0x7
 332 0095 40000000 		.4byte	.LASF11
 333 0099 03       		.uleb128 0x3
 334 009a D6010000 		.4byte	.LASF12
 335 009e 03       		.byte	0x3
 336 009f D1       		.byte	0xd1
 337 00a0 17       		.byte	0x17
ARM GAS  /tmp/ccIOiVfl.s 			page 7


 338 00a1 92000000 		.4byte	0x92
 339 00a5 04       		.uleb128 0x4
 340 00a6 99000000 		.4byte	0x99
 341 00aa 02       		.uleb128 0x2
 342 00ab 08       		.byte	0x8
 343 00ac 04       		.byte	0x4
 344 00ad 0E050000 		.4byte	.LASF13
 345 00b1 06       		.uleb128 0x6
 346 00b2 EA060000 		.4byte	.LASF14
 347 00b6 03       		.byte	0x3
 348 00b7 5E01     		.2byte	0x15e
 349 00b9 17       		.byte	0x17
 350 00ba 92000000 		.4byte	0x92
 351 00be 03       		.uleb128 0x3
 352 00bf F1070000 		.4byte	.LASF15
 353 00c3 04       		.byte	0x4
 354 00c4 2E       		.byte	0x2e
 355 00c5 0E       		.byte	0xe
 356 00c6 3F000000 		.4byte	0x3f
 357 00ca 03       		.uleb128 0x3
 358 00cb C5000000 		.4byte	.LASF16
 359 00cf 04       		.byte	0x4
 360 00d0 74       		.byte	0x74
 361 00d1 0E       		.byte	0xe
 362 00d2 3F000000 		.4byte	0x3f
 363 00d6 07       		.uleb128 0x7
 364 00d7 04       		.byte	0x4
 365 00d8 04       		.byte	0x4
 366 00d9 A5       		.byte	0xa5
 367 00da 03       		.byte	0x3
 368 00db F8000000 		.4byte	0xf8
 369 00df 08       		.uleb128 0x8
 370 00e0 02040000 		.4byte	.LASF17
 371 00e4 04       		.byte	0x4
 372 00e5 A7       		.byte	0xa7
 373 00e6 0C       		.byte	0xc
 374 00e7 B1000000 		.4byte	0xb1
 375 00eb 08       		.uleb128 0x8
 376 00ec CF050000 		.4byte	.LASF18
 377 00f0 04       		.byte	0x4
 378 00f1 A8       		.byte	0xa8
 379 00f2 13       		.byte	0x13
 380 00f3 F8000000 		.4byte	0xf8
 381 00f7 00       		.byte	0
 382 00f8 09       		.uleb128 0x9
 383 00f9 5E000000 		.4byte	0x5e
 384 00fd 08010000 		.4byte	0x108
 385 0101 0A       		.uleb128 0xa
 386 0102 92000000 		.4byte	0x92
 387 0106 03       		.byte	0x3
 388 0107 00       		.byte	0
 389 0108 0B       		.uleb128 0xb
 390 0109 08       		.byte	0x8
 391 010a 04       		.byte	0x4
 392 010b A2       		.byte	0xa2
 393 010c 09       		.byte	0x9
 394 010d 2C010000 		.4byte	0x12c
ARM GAS  /tmp/ccIOiVfl.s 			page 8


 395 0111 0C       		.uleb128 0xc
 396 0112 1E010000 		.4byte	.LASF19
 397 0116 04       		.byte	0x4
 398 0117 A4       		.byte	0xa4
 399 0118 07       		.byte	0x7
 400 0119 8B000000 		.4byte	0x8b
 401 011d 00       		.byte	0
 402 011e 0C       		.uleb128 0xc
 403 011f 51030000 		.4byte	.LASF20
 404 0123 04       		.byte	0x4
 405 0124 A9       		.byte	0xa9
 406 0125 05       		.byte	0x5
 407 0126 D6000000 		.4byte	0xd6
 408 012a 04       		.byte	0x4
 409 012b 00       		.byte	0
 410 012c 03       		.uleb128 0x3
 411 012d BF040000 		.4byte	.LASF21
 412 0131 04       		.byte	0x4
 413 0132 AA       		.byte	0xaa
 414 0133 03       		.byte	0x3
 415 0134 08010000 		.4byte	0x108
 416 0138 0D       		.uleb128 0xd
 417 0139 04       		.byte	0x4
 418 013a 03       		.uleb128 0x3
 419 013b 7D040000 		.4byte	.LASF22
 420 013f 05       		.byte	0x5
 421 0140 16       		.byte	0x16
 422 0141 19       		.byte	0x19
 423 0142 7D000000 		.4byte	0x7d
 424 0146 03       		.uleb128 0x3
 425 0147 97000000 		.4byte	.LASF23
 426 014b 06       		.byte	0x6
 427 014c 0C       		.byte	0xc
 428 014d 0D       		.byte	0xd
 429 014e 8B000000 		.4byte	0x8b
 430 0152 03       		.uleb128 0x3
 431 0153 D0030000 		.4byte	.LASF24
 432 0157 05       		.byte	0x5
 433 0158 23       		.byte	0x23
 434 0159 1B       		.byte	0x1b
 435 015a 46010000 		.4byte	0x146
 436 015e 0E       		.uleb128 0xe
 437 015f F1000000 		.4byte	.LASF29
 438 0163 18       		.byte	0x18
 439 0164 05       		.byte	0x5
 440 0165 34       		.byte	0x34
 441 0166 08       		.byte	0x8
 442 0167 B8010000 		.4byte	0x1b8
 443 016b 0C       		.uleb128 0xc
 444 016c 17020000 		.4byte	.LASF25
 445 0170 05       		.byte	0x5
 446 0171 36       		.byte	0x36
 447 0172 13       		.byte	0x13
 448 0173 B8010000 		.4byte	0x1b8
 449 0177 00       		.byte	0
 450 0178 0F       		.uleb128 0xf
 451 0179 5F6B00   		.ascii	"_k\000"
ARM GAS  /tmp/ccIOiVfl.s 			page 9


 452 017c 05       		.byte	0x5
 453 017d 37       		.byte	0x37
 454 017e 07       		.byte	0x7
 455 017f 8B000000 		.4byte	0x8b
 456 0183 04       		.byte	0x4
 457 0184 0C       		.uleb128 0xc
 458 0185 6F060000 		.4byte	.LASF26
 459 0189 05       		.byte	0x5
 460 018a 37       		.byte	0x37
 461 018b 0B       		.byte	0xb
 462 018c 8B000000 		.4byte	0x8b
 463 0190 08       		.byte	0x8
 464 0191 0C       		.uleb128 0xc
 465 0192 C3050000 		.4byte	.LASF27
 466 0196 05       		.byte	0x5
 467 0197 37       		.byte	0x37
 468 0198 14       		.byte	0x14
 469 0199 8B000000 		.4byte	0x8b
 470 019d 0C       		.byte	0xc
 471 019e 0C       		.uleb128 0xc
 472 019f 86010000 		.4byte	.LASF28
 473 01a3 05       		.byte	0x5
 474 01a4 37       		.byte	0x37
 475 01a5 1B       		.byte	0x1b
 476 01a6 8B000000 		.4byte	0x8b
 477 01aa 10       		.byte	0x10
 478 01ab 0F       		.uleb128 0xf
 479 01ac 5F7800   		.ascii	"_x\000"
 480 01af 05       		.byte	0x5
 481 01b0 38       		.byte	0x38
 482 01b1 0B       		.byte	0xb
 483 01b2 BE010000 		.4byte	0x1be
 484 01b6 14       		.byte	0x14
 485 01b7 00       		.byte	0
 486 01b8 10       		.uleb128 0x10
 487 01b9 04       		.byte	0x4
 488 01ba 5E010000 		.4byte	0x15e
 489 01be 09       		.uleb128 0x9
 490 01bf 3A010000 		.4byte	0x13a
 491 01c3 CE010000 		.4byte	0x1ce
 492 01c7 0A       		.uleb128 0xa
 493 01c8 92000000 		.4byte	0x92
 494 01cc 00       		.byte	0
 495 01cd 00       		.byte	0
 496 01ce 0E       		.uleb128 0xe
 497 01cf 90060000 		.4byte	.LASF30
 498 01d3 24       		.byte	0x24
 499 01d4 05       		.byte	0x5
 500 01d5 3C       		.byte	0x3c
 501 01d6 08       		.byte	0x8
 502 01d7 51020000 		.4byte	0x251
 503 01db 0C       		.uleb128 0xc
 504 01dc EA010000 		.4byte	.LASF31
 505 01e0 05       		.byte	0x5
 506 01e1 3E       		.byte	0x3e
 507 01e2 09       		.byte	0x9
 508 01e3 8B000000 		.4byte	0x8b
ARM GAS  /tmp/ccIOiVfl.s 			page 10


 509 01e7 00       		.byte	0
 510 01e8 0C       		.uleb128 0xc
 511 01e9 2C010000 		.4byte	.LASF32
 512 01ed 05       		.byte	0x5
 513 01ee 3F       		.byte	0x3f
 514 01ef 09       		.byte	0x9
 515 01f0 8B000000 		.4byte	0x8b
 516 01f4 04       		.byte	0x4
 517 01f5 0C       		.uleb128 0xc
 518 01f6 14010000 		.4byte	.LASF33
 519 01fa 05       		.byte	0x5
 520 01fb 40       		.byte	0x40
 521 01fc 09       		.byte	0x9
 522 01fd 8B000000 		.4byte	0x8b
 523 0201 08       		.byte	0x8
 524 0202 0C       		.uleb128 0xc
 525 0203 87030000 		.4byte	.LASF34
 526 0207 05       		.byte	0x5
 527 0208 41       		.byte	0x41
 528 0209 09       		.byte	0x9
 529 020a 8B000000 		.4byte	0x8b
 530 020e 0C       		.byte	0xc
 531 020f 0C       		.uleb128 0xc
 532 0210 05050000 		.4byte	.LASF35
 533 0214 05       		.byte	0x5
 534 0215 42       		.byte	0x42
 535 0216 09       		.byte	0x9
 536 0217 8B000000 		.4byte	0x8b
 537 021b 10       		.byte	0x10
 538 021c 0C       		.uleb128 0xc
 539 021d F0050000 		.4byte	.LASF36
 540 0221 05       		.byte	0x5
 541 0222 43       		.byte	0x43
 542 0223 09       		.byte	0x9
 543 0224 8B000000 		.4byte	0x8b
 544 0228 14       		.byte	0x14
 545 0229 0C       		.uleb128 0xc
 546 022a F9000000 		.4byte	.LASF37
 547 022e 05       		.byte	0x5
 548 022f 44       		.byte	0x44
 549 0230 09       		.byte	0x9
 550 0231 8B000000 		.4byte	0x8b
 551 0235 18       		.byte	0x18
 552 0236 0C       		.uleb128 0xc
 553 0237 F3010000 		.4byte	.LASF38
 554 023b 05       		.byte	0x5
 555 023c 45       		.byte	0x45
 556 023d 09       		.byte	0x9
 557 023e 8B000000 		.4byte	0x8b
 558 0242 1C       		.byte	0x1c
 559 0243 0C       		.uleb128 0xc
 560 0244 CA040000 		.4byte	.LASF39
 561 0248 05       		.byte	0x5
 562 0249 46       		.byte	0x46
 563 024a 09       		.byte	0x9
 564 024b 8B000000 		.4byte	0x8b
 565 024f 20       		.byte	0x20
ARM GAS  /tmp/ccIOiVfl.s 			page 11


 566 0250 00       		.byte	0
 567 0251 11       		.uleb128 0x11
 568 0252 13000000 		.4byte	.LASF40
 569 0256 0801     		.2byte	0x108
 570 0258 05       		.byte	0x5
 571 0259 4F       		.byte	0x4f
 572 025a 08       		.byte	0x8
 573 025b 96020000 		.4byte	0x296
 574 025f 0C       		.uleb128 0xc
 575 0260 9F070000 		.4byte	.LASF41
 576 0264 05       		.byte	0x5
 577 0265 50       		.byte	0x50
 578 0266 0A       		.byte	0xa
 579 0267 96020000 		.4byte	0x296
 580 026b 00       		.byte	0
 581 026c 0C       		.uleb128 0xc
 582 026d F9060000 		.4byte	.LASF42
 583 0271 05       		.byte	0x5
 584 0272 51       		.byte	0x51
 585 0273 09       		.byte	0x9
 586 0274 96020000 		.4byte	0x296
 587 0278 80       		.byte	0x80
 588 0279 12       		.uleb128 0x12
 589 027a DB070000 		.4byte	.LASF43
 590 027e 05       		.byte	0x5
 591 027f 53       		.byte	0x53
 592 0280 0A       		.byte	0xa
 593 0281 3A010000 		.4byte	0x13a
 594 0285 0001     		.2byte	0x100
 595 0287 12       		.uleb128 0x12
 596 0288 2C080000 		.4byte	.LASF44
 597 028c 05       		.byte	0x5
 598 028d 56       		.byte	0x56
 599 028e 0A       		.byte	0xa
 600 028f 3A010000 		.4byte	0x13a
 601 0293 0401     		.2byte	0x104
 602 0295 00       		.byte	0
 603 0296 09       		.uleb128 0x9
 604 0297 38010000 		.4byte	0x138
 605 029b A6020000 		.4byte	0x2a6
 606 029f 0A       		.uleb128 0xa
 607 02a0 92000000 		.4byte	0x92
 608 02a4 1F       		.byte	0x1f
 609 02a5 00       		.byte	0
 610 02a6 11       		.uleb128 0x11
 611 02a7 4B050000 		.4byte	.LASF45
 612 02ab 9001     		.2byte	0x190
 613 02ad 05       		.byte	0x5
 614 02ae 62       		.byte	0x62
 615 02af 08       		.byte	0x8
 616 02b0 E9020000 		.4byte	0x2e9
 617 02b4 0C       		.uleb128 0xc
 618 02b5 17020000 		.4byte	.LASF25
 619 02b9 05       		.byte	0x5
 620 02ba 63       		.byte	0x63
 621 02bb 12       		.byte	0x12
 622 02bc E9020000 		.4byte	0x2e9
ARM GAS  /tmp/ccIOiVfl.s 			page 12


 623 02c0 00       		.byte	0
 624 02c1 0C       		.uleb128 0xc
 625 02c2 02020000 		.4byte	.LASF46
 626 02c6 05       		.byte	0x5
 627 02c7 64       		.byte	0x64
 628 02c8 06       		.byte	0x6
 629 02c9 8B000000 		.4byte	0x8b
 630 02cd 04       		.byte	0x4
 631 02ce 0C       		.uleb128 0xc
 632 02cf CD000000 		.4byte	.LASF47
 633 02d3 05       		.byte	0x5
 634 02d4 66       		.byte	0x66
 635 02d5 09       		.byte	0x9
 636 02d6 EF020000 		.4byte	0x2ef
 637 02da 08       		.byte	0x8
 638 02db 0C       		.uleb128 0xc
 639 02dc 13000000 		.4byte	.LASF40
 640 02e0 05       		.byte	0x5
 641 02e1 67       		.byte	0x67
 642 02e2 1E       		.byte	0x1e
 643 02e3 51020000 		.4byte	0x251
 644 02e7 88       		.byte	0x88
 645 02e8 00       		.byte	0
 646 02e9 10       		.uleb128 0x10
 647 02ea 04       		.byte	0x4
 648 02eb A6020000 		.4byte	0x2a6
 649 02ef 09       		.uleb128 0x9
 650 02f0 FF020000 		.4byte	0x2ff
 651 02f4 FF020000 		.4byte	0x2ff
 652 02f8 0A       		.uleb128 0xa
 653 02f9 92000000 		.4byte	0x92
 654 02fd 1F       		.byte	0x1f
 655 02fe 00       		.byte	0
 656 02ff 10       		.uleb128 0x10
 657 0300 04       		.byte	0x4
 658 0301 05030000 		.4byte	0x305
 659 0305 13       		.uleb128 0x13
 660 0306 0E       		.uleb128 0xe
 661 0307 36070000 		.4byte	.LASF48
 662 030b 08       		.byte	0x8
 663 030c 05       		.byte	0x5
 664 030d 7A       		.byte	0x7a
 665 030e 08       		.byte	0x8
 666 030f 2E030000 		.4byte	0x32e
 667 0313 0C       		.uleb128 0xc
 668 0314 67040000 		.4byte	.LASF49
 669 0318 05       		.byte	0x5
 670 0319 7B       		.byte	0x7b
 671 031a 11       		.byte	0x11
 672 031b 2E030000 		.4byte	0x32e
 673 031f 00       		.byte	0
 674 0320 0C       		.uleb128 0xc
 675 0321 E4070000 		.4byte	.LASF50
 676 0325 05       		.byte	0x5
 677 0326 7C       		.byte	0x7c
 678 0327 06       		.byte	0x6
 679 0328 8B000000 		.4byte	0x8b
ARM GAS  /tmp/ccIOiVfl.s 			page 13


 680 032c 04       		.byte	0x4
 681 032d 00       		.byte	0
 682 032e 10       		.uleb128 0x10
 683 032f 04       		.byte	0x4
 684 0330 5E000000 		.4byte	0x5e
 685 0334 0E       		.uleb128 0xe
 686 0335 7E010000 		.4byte	.LASF51
 687 0339 68       		.byte	0x68
 688 033a 05       		.byte	0x5
 689 033b BA       		.byte	0xba
 690 033c 08       		.byte	0x8
 691 033d 77040000 		.4byte	0x477
 692 0341 0F       		.uleb128 0xf
 693 0342 5F7000   		.ascii	"_p\000"
 694 0345 05       		.byte	0x5
 695 0346 BB       		.byte	0xbb
 696 0347 12       		.byte	0x12
 697 0348 2E030000 		.4byte	0x32e
 698 034c 00       		.byte	0
 699 034d 0F       		.uleb128 0xf
 700 034e 5F7200   		.ascii	"_r\000"
 701 0351 05       		.byte	0x5
 702 0352 BC       		.byte	0xbc
 703 0353 07       		.byte	0x7
 704 0354 8B000000 		.4byte	0x8b
 705 0358 04       		.byte	0x4
 706 0359 0F       		.uleb128 0xf
 707 035a 5F7700   		.ascii	"_w\000"
 708 035d 05       		.byte	0x5
 709 035e BD       		.byte	0xbd
 710 035f 07       		.byte	0x7
 711 0360 8B000000 		.4byte	0x8b
 712 0364 08       		.byte	0x8
 713 0365 0C       		.uleb128 0xc
 714 0366 63000000 		.4byte	.LASF52
 715 036a 05       		.byte	0x5
 716 036b BE       		.byte	0xbe
 717 036c 09       		.byte	0x9
 718 036d 2C000000 		.4byte	0x2c
 719 0371 0C       		.byte	0xc
 720 0372 0C       		.uleb128 0xc
 721 0373 A7040000 		.4byte	.LASF53
 722 0377 05       		.byte	0x5
 723 0378 BF       		.byte	0xbf
 724 0379 09       		.byte	0x9
 725 037a 2C000000 		.4byte	0x2c
 726 037e 0E       		.byte	0xe
 727 037f 0F       		.uleb128 0xf
 728 0380 5F626600 		.ascii	"_bf\000"
 729 0384 05       		.byte	0x5
 730 0385 C0       		.byte	0xc0
 731 0386 11       		.byte	0x11
 732 0387 06030000 		.4byte	0x306
 733 038b 10       		.byte	0x10
 734 038c 0C       		.uleb128 0xc
 735 038d 5A000000 		.4byte	.LASF54
 736 0391 05       		.byte	0x5
ARM GAS  /tmp/ccIOiVfl.s 			page 14


 737 0392 C1       		.byte	0xc1
 738 0393 07       		.byte	0x7
 739 0394 8B000000 		.4byte	0x8b
 740 0398 18       		.byte	0x18
 741 0399 0C       		.uleb128 0xc
 742 039a D2000000 		.4byte	.LASF55
 743 039e 05       		.byte	0x5
 744 039f C8       		.byte	0xc8
 745 03a0 0A       		.byte	0xa
 746 03a1 38010000 		.4byte	0x138
 747 03a5 1C       		.byte	0x1c
 748 03a6 0C       		.uleb128 0xc
 749 03a7 A9000000 		.4byte	.LASF56
 750 03ab 05       		.byte	0x5
 751 03ac CA       		.byte	0xca
 752 03ad 1D       		.byte	0x1d
 753 03ae FB050000 		.4byte	0x5fb
 754 03b2 20       		.byte	0x20
 755 03b3 0C       		.uleb128 0xc
 756 03b4 1A050000 		.4byte	.LASF57
 757 03b8 05       		.byte	0x5
 758 03b9 CC       		.byte	0xcc
 759 03ba 1D       		.byte	0x1d
 760 03bb 25060000 		.4byte	0x625
 761 03bf 24       		.byte	0x24
 762 03c0 0C       		.uleb128 0xc
 763 03c1 50080000 		.4byte	.LASF58
 764 03c5 05       		.byte	0x5
 765 03c6 CF       		.byte	0xcf
 766 03c7 0D       		.byte	0xd
 767 03c8 49060000 		.4byte	0x649
 768 03cc 28       		.byte	0x28
 769 03cd 0C       		.uleb128 0xc
 770 03ce 16040000 		.4byte	.LASF59
 771 03d2 05       		.byte	0x5
 772 03d3 D0       		.byte	0xd0
 773 03d4 09       		.byte	0x9
 774 03d5 63060000 		.4byte	0x663
 775 03d9 2C       		.byte	0x2c
 776 03da 0F       		.uleb128 0xf
 777 03db 5F756200 		.ascii	"_ub\000"
 778 03df 05       		.byte	0x5
 779 03e0 D3       		.byte	0xd3
 780 03e1 11       		.byte	0x11
 781 03e2 06030000 		.4byte	0x306
 782 03e6 30       		.byte	0x30
 783 03e7 0F       		.uleb128 0xf
 784 03e8 5F757000 		.ascii	"_up\000"
 785 03ec 05       		.byte	0x5
 786 03ed D4       		.byte	0xd4
 787 03ee 12       		.byte	0x12
 788 03ef 2E030000 		.4byte	0x32e
 789 03f3 38       		.byte	0x38
 790 03f4 0F       		.uleb128 0xf
 791 03f5 5F757200 		.ascii	"_ur\000"
 792 03f9 05       		.byte	0x5
 793 03fa D5       		.byte	0xd5
ARM GAS  /tmp/ccIOiVfl.s 			page 15


 794 03fb 07       		.byte	0x7
 795 03fc 8B000000 		.4byte	0x8b
 796 0400 3C       		.byte	0x3c
 797 0401 0C       		.uleb128 0xc
 798 0402 67080000 		.4byte	.LASF60
 799 0406 05       		.byte	0x5
 800 0407 D8       		.byte	0xd8
 801 0408 11       		.byte	0x11
 802 0409 69060000 		.4byte	0x669
 803 040d 40       		.byte	0x40
 804 040e 0C       		.uleb128 0xc
 805 040f F8070000 		.4byte	.LASF61
 806 0413 05       		.byte	0x5
 807 0414 D9       		.byte	0xd9
 808 0415 11       		.byte	0x11
 809 0416 79060000 		.4byte	0x679
 810 041a 43       		.byte	0x43
 811 041b 0F       		.uleb128 0xf
 812 041c 5F6C6200 		.ascii	"_lb\000"
 813 0420 05       		.byte	0x5
 814 0421 DC       		.byte	0xdc
 815 0422 11       		.byte	0x11
 816 0423 06030000 		.4byte	0x306
 817 0427 44       		.byte	0x44
 818 0428 0C       		.uleb128 0xc
 819 0429 87060000 		.4byte	.LASF62
 820 042d 05       		.byte	0x5
 821 042e DF       		.byte	0xdf
 822 042f 07       		.byte	0x7
 823 0430 8B000000 		.4byte	0x8b
 824 0434 4C       		.byte	0x4c
 825 0435 0C       		.uleb128 0xc
 826 0436 A5010000 		.4byte	.LASF63
 827 043a 05       		.byte	0x5
 828 043b E0       		.byte	0xe0
 829 043c 0A       		.byte	0xa
 830 043d BE000000 		.4byte	0xbe
 831 0441 50       		.byte	0x50
 832 0442 0C       		.uleb128 0xc
 833 0443 C9050000 		.4byte	.LASF64
 834 0447 05       		.byte	0x5
 835 0448 E3       		.byte	0xe3
 836 0449 12       		.byte	0x12
 837 044a 95040000 		.4byte	0x495
 838 044e 54       		.byte	0x54
 839 044f 0C       		.uleb128 0xc
 840 0450 95060000 		.4byte	.LASF65
 841 0454 05       		.byte	0x5
 842 0455 E7       		.byte	0xe7
 843 0456 0C       		.byte	0xc
 844 0457 52010000 		.4byte	0x152
 845 045b 58       		.byte	0x58
 846 045c 0C       		.uleb128 0xc
 847 045d 53050000 		.4byte	.LASF66
 848 0461 05       		.byte	0x5
 849 0462 E9       		.byte	0xe9
 850 0463 0E       		.byte	0xe
ARM GAS  /tmp/ccIOiVfl.s 			page 16


 851 0464 2C010000 		.4byte	0x12c
 852 0468 5C       		.byte	0x5c
 853 0469 0C       		.uleb128 0xc
 854 046a 24080000 		.4byte	.LASF67
 855 046e 05       		.byte	0x5
 856 046f EA       		.byte	0xea
 857 0470 09       		.byte	0x9
 858 0471 8B000000 		.4byte	0x8b
 859 0475 64       		.byte	0x64
 860 0476 00       		.byte	0
 861 0477 14       		.uleb128 0x14
 862 0478 8B000000 		.4byte	0x8b
 863 047c 95040000 		.4byte	0x495
 864 0480 15       		.uleb128 0x15
 865 0481 95040000 		.4byte	0x495
 866 0485 15       		.uleb128 0x15
 867 0486 38010000 		.4byte	0x138
 868 048a 15       		.uleb128 0x15
 869 048b E9050000 		.4byte	0x5e9
 870 048f 15       		.uleb128 0x15
 871 0490 8B000000 		.4byte	0x8b
 872 0494 00       		.byte	0
 873 0495 10       		.uleb128 0x10
 874 0496 04       		.byte	0x4
 875 0497 A0040000 		.4byte	0x4a0
 876 049b 04       		.uleb128 0x4
 877 049c 95040000 		.4byte	0x495
 878 04a0 16       		.uleb128 0x16
 879 04a1 B3070000 		.4byte	.LASF68
 880 04a5 2804     		.2byte	0x428
 881 04a7 05       		.byte	0x5
 882 04a8 6502     		.2byte	0x265
 883 04aa 08       		.byte	0x8
 884 04ab E9050000 		.4byte	0x5e9
 885 04af 17       		.uleb128 0x17
 886 04b0 79000000 		.4byte	.LASF69
 887 04b4 05       		.byte	0x5
 888 04b5 6702     		.2byte	0x267
 889 04b7 07       		.byte	0x7
 890 04b8 8B000000 		.4byte	0x8b
 891 04bc 00       		.byte	0
 892 04bd 17       		.uleb128 0x17
 893 04be 43040000 		.4byte	.LASF70
 894 04c2 05       		.byte	0x5
 895 04c3 6C02     		.2byte	0x26c
 896 04c5 0B       		.byte	0xb
 897 04c6 D5060000 		.4byte	0x6d5
 898 04ca 04       		.byte	0x4
 899 04cb 17       		.uleb128 0x17
 900 04cc BD000000 		.4byte	.LASF71
 901 04d0 05       		.byte	0x5
 902 04d1 6C02     		.2byte	0x26c
 903 04d3 14       		.byte	0x14
 904 04d4 D5060000 		.4byte	0x6d5
 905 04d8 08       		.byte	0x8
 906 04d9 17       		.uleb128 0x17
 907 04da 56080000 		.4byte	.LASF72
ARM GAS  /tmp/ccIOiVfl.s 			page 17


 908 04de 05       		.byte	0x5
 909 04df 6C02     		.2byte	0x26c
 910 04e1 1E       		.byte	0x1e
 911 04e2 D5060000 		.4byte	0x6d5
 912 04e6 0C       		.byte	0xc
 913 04e7 17       		.uleb128 0x17
 914 04e8 FD010000 		.4byte	.LASF73
 915 04ec 05       		.byte	0x5
 916 04ed 6E02     		.2byte	0x26e
 917 04ef 08       		.byte	0x8
 918 04f0 8B000000 		.4byte	0x8b
 919 04f4 10       		.byte	0x10
 920 04f5 17       		.uleb128 0x17
 921 04f6 BE010000 		.4byte	.LASF74
 922 04fa 05       		.byte	0x5
 923 04fb 6F02     		.2byte	0x26f
 924 04fd 08       		.byte	0x8
 925 04fe D5080000 		.4byte	0x8d5
 926 0502 14       		.byte	0x14
 927 0503 17       		.uleb128 0x17
 928 0504 0B080000 		.4byte	.LASF75
 929 0508 05       		.byte	0x5
 930 0509 7202     		.2byte	0x272
 931 050b 07       		.byte	0x7
 932 050c 8B000000 		.4byte	0x8b
 933 0510 30       		.byte	0x30
 934 0511 17       		.uleb128 0x17
 935 0512 97070000 		.4byte	.LASF76
 936 0516 05       		.byte	0x5
 937 0517 7302     		.2byte	0x273
 938 0519 16       		.byte	0x16
 939 051a EA080000 		.4byte	0x8ea
 940 051e 34       		.byte	0x34
 941 051f 17       		.uleb128 0x17
 942 0520 27040000 		.4byte	.LASF77
 943 0524 05       		.byte	0x5
 944 0525 7502     		.2byte	0x275
 945 0527 07       		.byte	0x7
 946 0528 8B000000 		.4byte	0x8b
 947 052c 38       		.byte	0x38
 948 052d 17       		.uleb128 0x17
 949 052e B5040000 		.4byte	.LASF78
 950 0532 05       		.byte	0x5
 951 0533 7702     		.2byte	0x277
 952 0535 0A       		.byte	0xa
 953 0536 FB080000 		.4byte	0x8fb
 954 053a 3C       		.byte	0x3c
 955 053b 17       		.uleb128 0x17
 956 053c 03010000 		.4byte	.LASF79
 957 0540 05       		.byte	0x5
 958 0541 7A02     		.2byte	0x27a
 959 0543 13       		.byte	0x13
 960 0544 B8010000 		.4byte	0x1b8
 961 0548 40       		.byte	0x40
 962 0549 17       		.uleb128 0x17
 963 054a 50010000 		.4byte	.LASF80
 964 054e 05       		.byte	0x5
ARM GAS  /tmp/ccIOiVfl.s 			page 18


 965 054f 7B02     		.2byte	0x27b
 966 0551 07       		.byte	0x7
 967 0552 8B000000 		.4byte	0x8b
 968 0556 44       		.byte	0x44
 969 0557 17       		.uleb128 0x17
 970 0558 59030000 		.4byte	.LASF81
 971 055c 05       		.byte	0x5
 972 055d 7C02     		.2byte	0x27c
 973 055f 13       		.byte	0x13
 974 0560 B8010000 		.4byte	0x1b8
 975 0564 48       		.byte	0x48
 976 0565 17       		.uleb128 0x17
 977 0566 6D040000 		.4byte	.LASF82
 978 056a 05       		.byte	0x5
 979 056b 7D02     		.2byte	0x27d
 980 056d 14       		.byte	0x14
 981 056e 01090000 		.4byte	0x901
 982 0572 4C       		.byte	0x4c
 983 0573 17       		.uleb128 0x17
 984 0574 67060000 		.4byte	.LASF83
 985 0578 05       		.byte	0x5
 986 0579 8002     		.2byte	0x280
 987 057b 07       		.byte	0x7
 988 057c 8B000000 		.4byte	0x8b
 989 0580 50       		.byte	0x50
 990 0581 17       		.uleb128 0x17
 991 0582 05070000 		.4byte	.LASF84
 992 0586 05       		.byte	0x5
 993 0587 8102     		.2byte	0x281
 994 0589 09       		.byte	0x9
 995 058a E9050000 		.4byte	0x5e9
 996 058e 54       		.byte	0x54
 997 058f 17       		.uleb128 0x17
 998 0590 62060000 		.4byte	.LASF85
 999 0594 05       		.byte	0x5
 1000 0595 A402     		.2byte	0x2a4
 1001 0597 07       		.byte	0x7
 1002 0598 B0080000 		.4byte	0x8b0
 1003 059c 58       		.byte	0x58
 1004 059d 18       		.uleb128 0x18
 1005 059e 4B050000 		.4byte	.LASF45
 1006 05a2 05       		.byte	0x5
 1007 05a3 A802     		.2byte	0x2a8
 1008 05a5 13       		.byte	0x13
 1009 05a6 E9020000 		.4byte	0x2e9
 1010 05aa 4801     		.2byte	0x148
 1011 05ac 18       		.uleb128 0x18
 1012 05ad B5030000 		.4byte	.LASF86
 1013 05b1 05       		.byte	0x5
 1014 05b2 A902     		.2byte	0x2a9
 1015 05b4 12       		.byte	0x12
 1016 05b5 A6020000 		.4byte	0x2a6
 1017 05b9 4C01     		.2byte	0x14c
 1018 05bb 18       		.uleb128 0x18
 1019 05bc 9C030000 		.4byte	.LASF87
 1020 05c0 05       		.byte	0x5
 1021 05c1 AD02     		.2byte	0x2ad
ARM GAS  /tmp/ccIOiVfl.s 			page 19


 1022 05c3 0C       		.byte	0xc
 1023 05c4 12090000 		.4byte	0x912
 1024 05c8 DC02     		.2byte	0x2dc
 1025 05ca 18       		.uleb128 0x18
 1026 05cb 43070000 		.4byte	.LASF88
 1027 05cf 05       		.byte	0x5
 1028 05d0 B202     		.2byte	0x2b2
 1029 05d2 10       		.byte	0x10
 1030 05d3 96060000 		.4byte	0x696
 1031 05d7 E002     		.2byte	0x2e0
 1032 05d9 18       		.uleb128 0x18
 1033 05da BE050000 		.4byte	.LASF89
 1034 05de 05       		.byte	0x5
 1035 05df B402     		.2byte	0x2b4
 1036 05e1 0A       		.byte	0xa
 1037 05e2 1E090000 		.4byte	0x91e
 1038 05e6 EC02     		.2byte	0x2ec
 1039 05e8 00       		.byte	0
 1040 05e9 10       		.uleb128 0x10
 1041 05ea 04       		.byte	0x4
 1042 05eb EF050000 		.4byte	0x5ef
 1043 05ef 02       		.uleb128 0x2
 1044 05f0 01       		.byte	0x1
 1045 05f1 08       		.byte	0x8
 1046 05f2 82030000 		.4byte	.LASF90
 1047 05f6 04       		.uleb128 0x4
 1048 05f7 EF050000 		.4byte	0x5ef
 1049 05fb 10       		.uleb128 0x10
 1050 05fc 04       		.byte	0x4
 1051 05fd 77040000 		.4byte	0x477
 1052 0601 14       		.uleb128 0x14
 1053 0602 8B000000 		.4byte	0x8b
 1054 0606 1F060000 		.4byte	0x61f
 1055 060a 15       		.uleb128 0x15
 1056 060b 95040000 		.4byte	0x495
 1057 060f 15       		.uleb128 0x15
 1058 0610 38010000 		.4byte	0x138
 1059 0614 15       		.uleb128 0x15
 1060 0615 1F060000 		.4byte	0x61f
 1061 0619 15       		.uleb128 0x15
 1062 061a 8B000000 		.4byte	0x8b
 1063 061e 00       		.byte	0
 1064 061f 10       		.uleb128 0x10
 1065 0620 04       		.byte	0x4
 1066 0621 F6050000 		.4byte	0x5f6
 1067 0625 10       		.uleb128 0x10
 1068 0626 04       		.byte	0x4
 1069 0627 01060000 		.4byte	0x601
 1070 062b 14       		.uleb128 0x14
 1071 062c CA000000 		.4byte	0xca
 1072 0630 49060000 		.4byte	0x649
 1073 0634 15       		.uleb128 0x15
 1074 0635 95040000 		.4byte	0x495
 1075 0639 15       		.uleb128 0x15
 1076 063a 38010000 		.4byte	0x138
 1077 063e 15       		.uleb128 0x15
 1078 063f CA000000 		.4byte	0xca
ARM GAS  /tmp/ccIOiVfl.s 			page 20


 1079 0643 15       		.uleb128 0x15
 1080 0644 8B000000 		.4byte	0x8b
 1081 0648 00       		.byte	0
 1082 0649 10       		.uleb128 0x10
 1083 064a 04       		.byte	0x4
 1084 064b 2B060000 		.4byte	0x62b
 1085 064f 14       		.uleb128 0x14
 1086 0650 8B000000 		.4byte	0x8b
 1087 0654 63060000 		.4byte	0x663
 1088 0658 15       		.uleb128 0x15
 1089 0659 95040000 		.4byte	0x495
 1090 065d 15       		.uleb128 0x15
 1091 065e 38010000 		.4byte	0x138
 1092 0662 00       		.byte	0
 1093 0663 10       		.uleb128 0x10
 1094 0664 04       		.byte	0x4
 1095 0665 4F060000 		.4byte	0x64f
 1096 0669 09       		.uleb128 0x9
 1097 066a 5E000000 		.4byte	0x5e
 1098 066e 79060000 		.4byte	0x679
 1099 0672 0A       		.uleb128 0xa
 1100 0673 92000000 		.4byte	0x92
 1101 0677 02       		.byte	0x2
 1102 0678 00       		.byte	0
 1103 0679 09       		.uleb128 0x9
 1104 067a 5E000000 		.4byte	0x5e
 1105 067e 89060000 		.4byte	0x689
 1106 0682 0A       		.uleb128 0xa
 1107 0683 92000000 		.4byte	0x92
 1108 0687 00       		.byte	0
 1109 0688 00       		.byte	0
 1110 0689 06       		.uleb128 0x6
 1111 068a 9E010000 		.4byte	.LASF91
 1112 068e 05       		.byte	0x5
 1113 068f 2401     		.2byte	0x124
 1114 0691 1A       		.byte	0x1a
 1115 0692 34030000 		.4byte	0x334
 1116 0696 19       		.uleb128 0x19
 1117 0697 3D070000 		.4byte	.LASF92
 1118 069b 0C       		.byte	0xc
 1119 069c 05       		.byte	0x5
 1120 069d 2801     		.2byte	0x128
 1121 069f 08       		.byte	0x8
 1122 06a0 CF060000 		.4byte	0x6cf
 1123 06a4 17       		.uleb128 0x17
 1124 06a5 17020000 		.4byte	.LASF25
 1125 06a9 05       		.byte	0x5
 1126 06aa 2A01     		.2byte	0x12a
 1127 06ac 11       		.byte	0x11
 1128 06ad CF060000 		.4byte	0x6cf
 1129 06b1 00       		.byte	0
 1130 06b2 17       		.uleb128 0x17
 1131 06b3 E3060000 		.4byte	.LASF93
 1132 06b7 05       		.byte	0x5
 1133 06b8 2B01     		.2byte	0x12b
 1134 06ba 07       		.byte	0x7
 1135 06bb 8B000000 		.4byte	0x8b
ARM GAS  /tmp/ccIOiVfl.s 			page 21


 1136 06bf 04       		.byte	0x4
 1137 06c0 17       		.uleb128 0x17
 1138 06c1 08040000 		.4byte	.LASF94
 1139 06c5 05       		.byte	0x5
 1140 06c6 2C01     		.2byte	0x12c
 1141 06c8 0B       		.byte	0xb
 1142 06c9 D5060000 		.4byte	0x6d5
 1143 06cd 08       		.byte	0x8
 1144 06ce 00       		.byte	0
 1145 06cf 10       		.uleb128 0x10
 1146 06d0 04       		.byte	0x4
 1147 06d1 96060000 		.4byte	0x696
 1148 06d5 10       		.uleb128 0x10
 1149 06d6 04       		.byte	0x4
 1150 06d7 89060000 		.4byte	0x689
 1151 06db 19       		.uleb128 0x19
 1152 06dc 48010000 		.4byte	.LASF95
 1153 06e0 0E       		.byte	0xe
 1154 06e1 05       		.byte	0x5
 1155 06e2 4401     		.2byte	0x144
 1156 06e4 08       		.byte	0x8
 1157 06e5 14070000 		.4byte	0x714
 1158 06e9 17       		.uleb128 0x17
 1159 06ea 34080000 		.4byte	.LASF96
 1160 06ee 05       		.byte	0x5
 1161 06ef 4501     		.2byte	0x145
 1162 06f1 12       		.byte	0x12
 1163 06f2 14070000 		.4byte	0x714
 1164 06f6 00       		.byte	0
 1165 06f7 17       		.uleb128 0x17
 1166 06f8 77040000 		.4byte	.LASF97
 1167 06fc 05       		.byte	0x5
 1168 06fd 4601     		.2byte	0x146
 1169 06ff 12       		.byte	0x12
 1170 0700 14070000 		.4byte	0x714
 1171 0704 06       		.byte	0x6
 1172 0705 17       		.uleb128 0x17
 1173 0706 28070000 		.4byte	.LASF98
 1174 070a 05       		.byte	0x5
 1175 070b 4701     		.2byte	0x147
 1176 070d 12       		.byte	0x12
 1177 070e 65000000 		.4byte	0x65
 1178 0712 0C       		.byte	0xc
 1179 0713 00       		.byte	0
 1180 0714 09       		.uleb128 0x9
 1181 0715 65000000 		.4byte	0x65
 1182 0719 24070000 		.4byte	0x724
 1183 071d 0A       		.uleb128 0xa
 1184 071e 92000000 		.4byte	0x92
 1185 0722 02       		.byte	0x2
 1186 0723 00       		.byte	0
 1187 0724 1A       		.uleb128 0x1a
 1188 0725 D0       		.byte	0xd0
 1189 0726 05       		.byte	0x5
 1190 0727 8502     		.2byte	0x285
 1191 0729 07       		.byte	0x7
 1192 072a 39080000 		.4byte	0x839
ARM GAS  /tmp/ccIOiVfl.s 			page 22


 1193 072e 17       		.uleb128 0x17
 1194 072f FE070000 		.4byte	.LASF99
 1195 0733 05       		.byte	0x5
 1196 0734 8702     		.2byte	0x287
 1197 0736 18       		.byte	0x18
 1198 0737 92000000 		.4byte	0x92
 1199 073b 00       		.byte	0
 1200 073c 17       		.uleb128 0x17
 1201 073d 4B070000 		.4byte	.LASF100
 1202 0741 05       		.byte	0x5
 1203 0742 8802     		.2byte	0x288
 1204 0744 12       		.byte	0x12
 1205 0745 E9050000 		.4byte	0x5e9
 1206 0749 04       		.byte	0x4
 1207 074a 17       		.uleb128 0x17
 1208 074b 71010000 		.4byte	.LASF101
 1209 074f 05       		.byte	0x5
 1210 0750 8902     		.2byte	0x289
 1211 0752 10       		.byte	0x10
 1212 0753 39080000 		.4byte	0x839
 1213 0757 08       		.byte	0x8
 1214 0758 17       		.uleb128 0x17
 1215 0759 37060000 		.4byte	.LASF102
 1216 075d 05       		.byte	0x5
 1217 075e 8A02     		.2byte	0x28a
 1218 0760 17       		.byte	0x17
 1219 0761 CE010000 		.4byte	0x1ce
 1220 0765 24       		.byte	0x24
 1221 0766 17       		.uleb128 0x17
 1222 0767 4A040000 		.4byte	.LASF103
 1223 076b 05       		.byte	0x5
 1224 076c 8B02     		.2byte	0x28b
 1225 076e 0F       		.byte	0xf
 1226 076f 8B000000 		.4byte	0x8b
 1227 0773 48       		.byte	0x48
 1228 0774 17       		.uleb128 0x17
 1229 0775 3A080000 		.4byte	.LASF104
 1230 0779 05       		.byte	0x5
 1231 077a 8C02     		.2byte	0x28c
 1232 077c 2C       		.byte	0x2c
 1233 077d 84000000 		.4byte	0x84
 1234 0781 50       		.byte	0x50
 1235 0782 17       		.uleb128 0x17
 1236 0783 2F000000 		.4byte	.LASF105
 1237 0787 05       		.byte	0x5
 1238 0788 8D02     		.2byte	0x28d
 1239 078a 1A       		.byte	0x1a
 1240 078b DB060000 		.4byte	0x6db
 1241 078f 58       		.byte	0x58
 1242 0790 17       		.uleb128 0x17
 1243 0791 75030000 		.4byte	.LASF106
 1244 0795 05       		.byte	0x5
 1245 0796 8E02     		.2byte	0x28e
 1246 0798 16       		.byte	0x16
 1247 0799 2C010000 		.4byte	0x12c
 1248 079d 68       		.byte	0x68
 1249 079e 17       		.uleb128 0x17
ARM GAS  /tmp/ccIOiVfl.s 			page 23


 1250 079f 58070000 		.4byte	.LASF107
 1251 07a3 05       		.byte	0x5
 1252 07a4 8F02     		.2byte	0x28f
 1253 07a6 16       		.byte	0x16
 1254 07a7 2C010000 		.4byte	0x12c
 1255 07ab 70       		.byte	0x70
 1256 07ac 17       		.uleb128 0x17
 1257 07ad 21000000 		.4byte	.LASF108
 1258 07b1 05       		.byte	0x5
 1259 07b2 9002     		.2byte	0x290
 1260 07b4 16       		.byte	0x16
 1261 07b5 2C010000 		.4byte	0x12c
 1262 07b9 78       		.byte	0x78
 1263 07ba 17       		.uleb128 0x17
 1264 07bb 77060000 		.4byte	.LASF109
 1265 07bf 05       		.byte	0x5
 1266 07c0 9102     		.2byte	0x291
 1267 07c2 10       		.byte	0x10
 1268 07c3 49080000 		.4byte	0x849
 1269 07c7 80       		.byte	0x80
 1270 07c8 17       		.uleb128 0x17
 1271 07c9 34000000 		.4byte	.LASF110
 1272 07cd 05       		.byte	0x5
 1273 07ce 9202     		.2byte	0x292
 1274 07d0 10       		.byte	0x10
 1275 07d1 59080000 		.4byte	0x859
 1276 07d5 88       		.byte	0x88
 1277 07d6 17       		.uleb128 0x17
 1278 07d7 1B070000 		.4byte	.LASF111
 1279 07db 05       		.byte	0x5
 1280 07dc 9302     		.2byte	0x293
 1281 07de 0F       		.byte	0xf
 1282 07df 8B000000 		.4byte	0x8b
 1283 07e3 A0       		.byte	0xa0
 1284 07e4 17       		.uleb128 0x17
 1285 07e5 AF000000 		.4byte	.LASF112
 1286 07e9 05       		.byte	0x5
 1287 07ea 9402     		.2byte	0x294
 1288 07ec 16       		.byte	0x16
 1289 07ed 2C010000 		.4byte	0x12c
 1290 07f1 A4       		.byte	0xa4
 1291 07f2 17       		.uleb128 0x17
 1292 07f3 A6030000 		.4byte	.LASF113
 1293 07f7 05       		.byte	0x5
 1294 07f8 9502     		.2byte	0x295
 1295 07fa 16       		.byte	0x16
 1296 07fb 2C010000 		.4byte	0x12c
 1297 07ff AC       		.byte	0xac
 1298 0800 17       		.uleb128 0x17
 1299 0801 1D020000 		.4byte	.LASF114
 1300 0805 05       		.byte	0x5
 1301 0806 9602     		.2byte	0x296
 1302 0808 16       		.byte	0x16
 1303 0809 2C010000 		.4byte	0x12c
 1304 080d B4       		.byte	0xb4
 1305 080e 17       		.uleb128 0x17
 1306 080f 98040000 		.4byte	.LASF115
ARM GAS  /tmp/ccIOiVfl.s 			page 24


 1307 0813 05       		.byte	0x5
 1308 0814 9702     		.2byte	0x297
 1309 0816 16       		.byte	0x16
 1310 0817 2C010000 		.4byte	0x12c
 1311 081b BC       		.byte	0xbc
 1312 081c 17       		.uleb128 0x17
 1313 081d 64030000 		.4byte	.LASF116
 1314 0821 05       		.byte	0x5
 1315 0822 9802     		.2byte	0x298
 1316 0824 16       		.byte	0x16
 1317 0825 2C010000 		.4byte	0x12c
 1318 0829 C4       		.byte	0xc4
 1319 082a 17       		.uleb128 0x17
 1320 082b D5040000 		.4byte	.LASF117
 1321 082f 05       		.byte	0x5
 1322 0830 9902     		.2byte	0x299
 1323 0832 08       		.byte	0x8
 1324 0833 8B000000 		.4byte	0x8b
 1325 0837 CC       		.byte	0xcc
 1326 0838 00       		.byte	0
 1327 0839 09       		.uleb128 0x9
 1328 083a EF050000 		.4byte	0x5ef
 1329 083e 49080000 		.4byte	0x849
 1330 0842 0A       		.uleb128 0xa
 1331 0843 92000000 		.4byte	0x92
 1332 0847 19       		.byte	0x19
 1333 0848 00       		.byte	0
 1334 0849 09       		.uleb128 0x9
 1335 084a EF050000 		.4byte	0x5ef
 1336 084e 59080000 		.4byte	0x859
 1337 0852 0A       		.uleb128 0xa
 1338 0853 92000000 		.4byte	0x92
 1339 0857 07       		.byte	0x7
 1340 0858 00       		.byte	0
 1341 0859 09       		.uleb128 0x9
 1342 085a EF050000 		.4byte	0x5ef
 1343 085e 69080000 		.4byte	0x869
 1344 0862 0A       		.uleb128 0xa
 1345 0863 92000000 		.4byte	0x92
 1346 0867 17       		.byte	0x17
 1347 0868 00       		.byte	0
 1348 0869 1A       		.uleb128 0x1a
 1349 086a F0       		.byte	0xf0
 1350 086b 05       		.byte	0x5
 1351 086c 9E02     		.2byte	0x29e
 1352 086e 07       		.byte	0x7
 1353 086f 90080000 		.4byte	0x890
 1354 0873 17       		.uleb128 0x17
 1355 0874 41010000 		.4byte	.LASF118
 1356 0878 05       		.byte	0x5
 1357 0879 A102     		.2byte	0x2a1
 1358 087b 1B       		.byte	0x1b
 1359 087c 90080000 		.4byte	0x890
 1360 0880 00       		.byte	0
 1361 0881 17       		.uleb128 0x17
 1362 0882 5E080000 		.4byte	.LASF119
 1363 0886 05       		.byte	0x5
ARM GAS  /tmp/ccIOiVfl.s 			page 25


 1364 0887 A202     		.2byte	0x2a2
 1365 0889 18       		.byte	0x18
 1366 088a A0080000 		.4byte	0x8a0
 1367 088e 78       		.byte	0x78
 1368 088f 00       		.byte	0
 1369 0890 09       		.uleb128 0x9
 1370 0891 2E030000 		.4byte	0x32e
 1371 0895 A0080000 		.4byte	0x8a0
 1372 0899 0A       		.uleb128 0xa
 1373 089a 92000000 		.4byte	0x92
 1374 089e 1D       		.byte	0x1d
 1375 089f 00       		.byte	0
 1376 08a0 09       		.uleb128 0x9
 1377 08a1 92000000 		.4byte	0x92
 1378 08a5 B0080000 		.4byte	0x8b0
 1379 08a9 0A       		.uleb128 0xa
 1380 08aa 92000000 		.4byte	0x92
 1381 08ae 1D       		.byte	0x1d
 1382 08af 00       		.byte	0
 1383 08b0 1B       		.uleb128 0x1b
 1384 08b1 F0       		.byte	0xf0
 1385 08b2 05       		.byte	0x5
 1386 08b3 8302     		.2byte	0x283
 1387 08b5 03       		.byte	0x3
 1388 08b6 D5080000 		.4byte	0x8d5
 1389 08ba 1C       		.uleb128 0x1c
 1390 08bb B3070000 		.4byte	.LASF68
 1391 08bf 05       		.byte	0x5
 1392 08c0 9A02     		.2byte	0x29a
 1393 08c2 0B       		.byte	0xb
 1394 08c3 24070000 		.4byte	0x724
 1395 08c7 1C       		.uleb128 0x1c
 1396 08c8 5A060000 		.4byte	.LASF120
 1397 08cc 05       		.byte	0x5
 1398 08cd A302     		.2byte	0x2a3
 1399 08cf 0B       		.byte	0xb
 1400 08d0 69080000 		.4byte	0x869
 1401 08d4 00       		.byte	0
 1402 08d5 09       		.uleb128 0x9
 1403 08d6 EF050000 		.4byte	0x5ef
 1404 08da E5080000 		.4byte	0x8e5
 1405 08de 0A       		.uleb128 0xa
 1406 08df 92000000 		.4byte	0x92
 1407 08e3 18       		.byte	0x18
 1408 08e4 00       		.byte	0
 1409 08e5 1D       		.uleb128 0x1d
 1410 08e6 45080000 		.4byte	.LASF174
 1411 08ea 10       		.uleb128 0x10
 1412 08eb 04       		.byte	0x4
 1413 08ec E5080000 		.4byte	0x8e5
 1414 08f0 1E       		.uleb128 0x1e
 1415 08f1 FB080000 		.4byte	0x8fb
 1416 08f5 15       		.uleb128 0x15
 1417 08f6 95040000 		.4byte	0x495
 1418 08fa 00       		.byte	0
 1419 08fb 10       		.uleb128 0x10
 1420 08fc 04       		.byte	0x4
ARM GAS  /tmp/ccIOiVfl.s 			page 26


 1421 08fd F0080000 		.4byte	0x8f0
 1422 0901 10       		.uleb128 0x10
 1423 0902 04       		.byte	0x4
 1424 0903 B8010000 		.4byte	0x1b8
 1425 0907 1E       		.uleb128 0x1e
 1426 0908 12090000 		.4byte	0x912
 1427 090c 15       		.uleb128 0x15
 1428 090d 8B000000 		.4byte	0x8b
 1429 0911 00       		.byte	0
 1430 0912 10       		.uleb128 0x10
 1431 0913 04       		.byte	0x4
 1432 0914 18090000 		.4byte	0x918
 1433 0918 10       		.uleb128 0x10
 1434 0919 04       		.byte	0x4
 1435 091a 07090000 		.4byte	0x907
 1436 091e 09       		.uleb128 0x9
 1437 091f 89060000 		.4byte	0x689
 1438 0923 2E090000 		.4byte	0x92e
 1439 0927 0A       		.uleb128 0xa
 1440 0928 92000000 		.4byte	0x92
 1441 092c 02       		.byte	0x2
 1442 092d 00       		.byte	0
 1443 092e 1F       		.uleb128 0x1f
 1444 092f 35010000 		.4byte	.LASF121
 1445 0933 05       		.byte	0x5
 1446 0934 3303     		.2byte	0x333
 1447 0936 17       		.byte	0x17
 1448 0937 95040000 		.4byte	0x495
 1449 093b 1F       		.uleb128 0x1f
 1450 093c D6050000 		.4byte	.LASF122
 1451 0940 05       		.byte	0x5
 1452 0941 3403     		.2byte	0x334
 1453 0943 1D       		.byte	0x1d
 1454 0944 9B040000 		.4byte	0x49b
 1455 0948 02       		.uleb128 0x2
 1456 0949 04       		.byte	0x4
 1457 094a 04       		.byte	0x4
 1458 094b 26010000 		.4byte	.LASF123
 1459 094f 04       		.uleb128 0x4
 1460 0950 48090000 		.4byte	0x948
 1461 0954 02       		.uleb128 0x2
 1462 0955 08       		.byte	0x8
 1463 0956 04       		.byte	0x4
 1464 0957 EA070000 		.4byte	.LASF124
 1465 095b 20       		.uleb128 0x20
 1466 095c BE030000 		.4byte	.LASF125
 1467 0960 07       		.byte	0x7
 1468 0961 46       		.byte	0x46
 1469 0962 19       		.byte	0x19
 1470 0963 78000000 		.4byte	0x78
 1471 0967 20       		.uleb128 0x20
 1472 0968 AD050000 		.4byte	.LASF126
 1473 096c 07       		.byte	0x7
 1474 096d 4B       		.byte	0x4b
 1475 096e 19       		.byte	0x19
 1476 096f 78000000 		.4byte	0x78
 1477 0973 09       		.uleb128 0x9
ARM GAS  /tmp/ccIOiVfl.s 			page 27


 1478 0974 4F090000 		.4byte	0x94f
 1479 0978 83090000 		.4byte	0x983
 1480 097c 0A       		.uleb128 0xa
 1481 097d 92000000 		.4byte	0x92
 1482 0981 80       		.byte	0x80
 1483 0982 00       		.byte	0
 1484 0983 04       		.uleb128 0x4
 1485 0984 73090000 		.4byte	0x973
 1486 0988 20       		.uleb128 0x20
 1487 0989 C2060000 		.4byte	.LASF127
 1488 098d 07       		.byte	0x7
 1489 098e 81       		.byte	0x81
 1490 098f 16       		.byte	0x16
 1491 0990 83090000 		.4byte	0x983
 1492 0994 09       		.uleb128 0x9
 1493 0995 4F090000 		.4byte	0x94f
 1494 0999 A5090000 		.4byte	0x9a5
 1495 099d 21       		.uleb128 0x21
 1496 099e 92000000 		.4byte	0x92
 1497 09a2 0001     		.2byte	0x100
 1498 09a4 00       		.byte	0
 1499 09a5 04       		.uleb128 0x4
 1500 09a6 94090000 		.4byte	0x994
 1501 09aa 20       		.uleb128 0x20
 1502 09ab 1D040000 		.4byte	.LASF128
 1503 09af 07       		.byte	0x7
 1504 09b0 C7       		.byte	0xc7
 1505 09b1 16       		.byte	0x16
 1506 09b2 A5090000 		.4byte	0x9a5
 1507 09b6 20       		.uleb128 0x20
 1508 09b7 E5000000 		.4byte	.LASF129
 1509 09bb 07       		.byte	0x7
 1510 09bc DE       		.byte	0xde
 1511 09bd 16       		.byte	0x16
 1512 09be A5090000 		.4byte	0x9a5
 1513 09c2 20       		.uleb128 0x20
 1514 09c3 85050000 		.4byte	.LASF130
 1515 09c7 07       		.byte	0x7
 1516 09c8 F6       		.byte	0xf6
 1517 09c9 16       		.byte	0x16
 1518 09ca A5090000 		.4byte	0x9a5
 1519 09ce 1F       		.uleb128 0x1f
 1520 09cf 91030000 		.4byte	.LASF131
 1521 09d3 07       		.byte	0x7
 1522 09d4 0D01     		.2byte	0x10d
 1523 09d6 16       		.byte	0x16
 1524 09d7 A5090000 		.4byte	0x9a5
 1525 09db 1F       		.uleb128 0x1f
 1526 09dc 95050000 		.4byte	.LASF132
 1527 09e0 07       		.byte	0x7
 1528 09e1 3C01     		.2byte	0x13c
 1529 09e3 16       		.byte	0x16
 1530 09e4 83090000 		.4byte	0x983
 1531 09e8 1F       		.uleb128 0x1f
 1532 09e9 F3030000 		.4byte	.LASF133
 1533 09ed 07       		.byte	0x7
 1534 09ee 5101     		.2byte	0x151
ARM GAS  /tmp/ccIOiVfl.s 			page 28


 1535 09f0 16       		.byte	0x16
 1536 09f1 83090000 		.4byte	0x983
 1537 09f5 1F       		.uleb128 0x1f
 1538 09f6 4D000000 		.4byte	.LASF134
 1539 09fa 07       		.byte	0x7
 1540 09fb 6E01     		.2byte	0x16e
 1541 09fd 16       		.byte	0x16
 1542 09fe 83090000 		.4byte	0x983
 1543 0a02 03       		.uleb128 0x3
 1544 0a03 85040000 		.4byte	.LASF135
 1545 0a07 08       		.byte	0x8
 1546 0a08 4D       		.byte	0x4d
 1547 0a09 12       		.byte	0x12
 1548 0a0a 0E0A0000 		.4byte	0xa0e
 1549 0a0e 10       		.uleb128 0x10
 1550 0a0f 04       		.byte	0x4
 1551 0a10 140A0000 		.4byte	0xa14
 1552 0a14 1E       		.uleb128 0x1e
 1553 0a15 240A0000 		.4byte	0xa24
 1554 0a19 15       		.uleb128 0x15
 1555 0a1a 6C000000 		.4byte	0x6c
 1556 0a1e 15       		.uleb128 0x15
 1557 0a1f 6C000000 		.4byte	0x6c
 1558 0a23 00       		.byte	0
 1559 0a24 03       		.uleb128 0x3
 1560 0a25 9B060000 		.4byte	.LASF136
 1561 0a29 08       		.byte	0x8
 1562 0a2a 51       		.byte	0x51
 1563 0a2b 12       		.byte	0x12
 1564 0a2c 300A0000 		.4byte	0xa30
 1565 0a30 10       		.uleb128 0x10
 1566 0a31 04       		.byte	0x4
 1567 0a32 360A0000 		.4byte	0xa36
 1568 0a36 1E       		.uleb128 0x1e
 1569 0a37 550A0000 		.4byte	0xa55
 1570 0a3b 15       		.uleb128 0x15
 1571 0a3c 550A0000 		.4byte	0xa55
 1572 0a40 15       		.uleb128 0x15
 1573 0a41 5B0A0000 		.4byte	0xa5b
 1574 0a45 15       		.uleb128 0x15
 1575 0a46 550A0000 		.4byte	0xa55
 1576 0a4a 15       		.uleb128 0x15
 1577 0a4b 5B0A0000 		.4byte	0xa5b
 1578 0a4f 15       		.uleb128 0x15
 1579 0a50 6C000000 		.4byte	0x6c
 1580 0a54 00       		.byte	0
 1581 0a55 10       		.uleb128 0x10
 1582 0a56 04       		.byte	0x4
 1583 0a57 4F090000 		.4byte	0x94f
 1584 0a5b 10       		.uleb128 0x10
 1585 0a5c 04       		.byte	0x4
 1586 0a5d 48090000 		.4byte	0x948
 1587 0a61 03       		.uleb128 0x3
 1588 0a62 32040000 		.4byte	.LASF137
 1589 0a66 08       		.byte	0x8
 1590 0a67 55       		.byte	0x55
 1591 0a68 12       		.byte	0x12
ARM GAS  /tmp/ccIOiVfl.s 			page 29


 1592 0a69 FF020000 		.4byte	0x2ff
 1593 0a6d 03       		.uleb128 0x3
 1594 0a6e 07020000 		.4byte	.LASF138
 1595 0a72 08       		.byte	0x8
 1596 0a73 57       		.byte	0x57
 1597 0a74 12       		.byte	0x12
 1598 0a75 FF020000 		.4byte	0x2ff
 1599 0a79 03       		.uleb128 0x3
 1600 0a7a 8B010000 		.4byte	.LASF139
 1601 0a7e 08       		.byte	0x8
 1602 0a7f 59       		.byte	0x59
 1603 0a80 12       		.byte	0x12
 1604 0a81 850A0000 		.4byte	0xa85
 1605 0a85 10       		.uleb128 0x10
 1606 0a86 04       		.byte	0x4
 1607 0a87 8B0A0000 		.4byte	0xa8b
 1608 0a8b 1E       		.uleb128 0x1e
 1609 0a8c 9B0A0000 		.4byte	0xa9b
 1610 0a90 15       		.uleb128 0x15
 1611 0a91 4D000000 		.4byte	0x4d
 1612 0a95 15       		.uleb128 0x15
 1613 0a96 33000000 		.4byte	0x33
 1614 0a9a 00       		.byte	0
 1615 0a9b 03       		.uleb128 0x3
 1616 0a9c D0060000 		.4byte	.LASF140
 1617 0aa0 08       		.byte	0x8
 1618 0aa1 5B       		.byte	0x5b
 1619 0aa2 12       		.byte	0x12
 1620 0aa3 FF020000 		.4byte	0x2ff
 1621 0aa7 0E       		.uleb128 0xe
 1622 0aa8 21050000 		.4byte	.LASF141
 1623 0aac 40       		.byte	0x40
 1624 0aad 08       		.byte	0x8
 1625 0aae 5F       		.byte	0x5f
 1626 0aaf 12       		.byte	0x12
 1627 0ab0 370B0000 		.4byte	0xb37
 1628 0ab4 0C       		.uleb128 0xc
 1629 0ab5 81060000 		.4byte	.LASF142
 1630 0ab9 08       		.byte	0x8
 1631 0aba 60       		.byte	0x60
 1632 0abb 1A       		.byte	0x1a
 1633 0abc 370B0000 		.4byte	0xb37
 1634 0ac0 00       		.byte	0
 1635 0ac1 0F       		.uleb128 0xf
 1636 0ac2 61706900 		.ascii	"api\000"
 1637 0ac6 08       		.byte	0x8
 1638 0ac7 61       		.byte	0x61
 1639 0ac8 1A       		.byte	0x1a
 1640 0ac9 6C000000 		.4byte	0x6c
 1641 0acd 04       		.byte	0x4
 1642 0ace 0C       		.uleb128 0xc
 1643 0acf 70000000 		.4byte	.LASF143
 1644 0ad3 08       		.byte	0x8
 1645 0ad4 62       		.byte	0x62
 1646 0ad5 1A       		.byte	0x1a
 1647 0ad6 4D000000 		.4byte	0x4d
 1648 0ada 08       		.byte	0x8
ARM GAS  /tmp/ccIOiVfl.s 			page 30


 1649 0adb 0C       		.uleb128 0xc
 1650 0adc 46060000 		.4byte	.LASF144
 1651 0ae0 08       		.byte	0x8
 1652 0ae1 63       		.byte	0x63
 1653 0ae2 1A       		.byte	0x1a
 1654 0ae3 470B0000 		.4byte	0xb47
 1655 0ae7 09       		.byte	0x9
 1656 0ae8 0C       		.uleb128 0xc
 1657 0ae9 DE040000 		.4byte	.LASF145
 1658 0aed 08       		.byte	0x8
 1659 0aee 65       		.byte	0x65
 1660 0aef 1A       		.byte	0x1a
 1661 0af0 020A0000 		.4byte	0xa02
 1662 0af4 10       		.byte	0x10
 1663 0af5 0C       		.uleb128 0xc
 1664 0af6 DD010000 		.4byte	.LASF146
 1665 0afa 08       		.byte	0x8
 1666 0afb 66       		.byte	0x66
 1667 0afc 1A       		.byte	0x1a
 1668 0afd 240A0000 		.4byte	0xa24
 1669 0b01 14       		.byte	0x14
 1670 0b02 0C       		.uleb128 0xc
 1671 0b03 E9040000 		.4byte	.LASF147
 1672 0b07 08       		.byte	0x8
 1673 0b08 67       		.byte	0x67
 1674 0b09 1A       		.byte	0x1a
 1675 0b0a 610A0000 		.4byte	0xa61
 1676 0b0e 18       		.byte	0x18
 1677 0b0f 0C       		.uleb128 0xc
 1678 0b10 8B070000 		.4byte	.LASF148
 1679 0b14 08       		.byte	0x8
 1680 0b15 68       		.byte	0x68
 1681 0b16 1A       		.byte	0x1a
 1682 0b17 6D0A0000 		.4byte	0xa6d
 1683 0b1b 1C       		.byte	0x1c
 1684 0b1c 0C       		.uleb128 0xc
 1685 0b1d AD010000 		.4byte	.LASF149
 1686 0b21 08       		.byte	0x8
 1687 0b22 69       		.byte	0x69
 1688 0b23 1A       		.byte	0x1a
 1689 0b24 790A0000 		.4byte	0xa79
 1690 0b28 20       		.byte	0x20
 1691 0b29 0C       		.uleb128 0xc
 1692 0b2a 50060000 		.4byte	.LASF150
 1693 0b2e 08       		.byte	0x8
 1694 0b2f 6A       		.byte	0x6a
 1695 0b30 1A       		.byte	0x1a
 1696 0b31 570B0000 		.4byte	0xb57
 1697 0b35 24       		.byte	0x24
 1698 0b36 00       		.byte	0
 1699 0b37 09       		.uleb128 0x9
 1700 0b38 4D000000 		.4byte	0x4d
 1701 0b3c 470B0000 		.4byte	0xb47
 1702 0b40 0A       		.uleb128 0xa
 1703 0b41 92000000 		.4byte	0x92
 1704 0b45 03       		.byte	0x3
 1705 0b46 00       		.byte	0
ARM GAS  /tmp/ccIOiVfl.s 			page 31


 1706 0b47 09       		.uleb128 0x9
 1707 0b48 4D000000 		.4byte	0x4d
 1708 0b4c 570B0000 		.4byte	0xb57
 1709 0b50 0A       		.uleb128 0xa
 1710 0b51 92000000 		.4byte	0x92
 1711 0b55 06       		.byte	0x6
 1712 0b56 00       		.byte	0
 1713 0b57 09       		.uleb128 0x9
 1714 0b58 9B0A0000 		.4byte	0xa9b
 1715 0b5c 670B0000 		.4byte	0xb67
 1716 0b60 0A       		.uleb128 0xa
 1717 0b61 92000000 		.4byte	0x92
 1718 0b65 06       		.byte	0x6
 1719 0b66 00       		.byte	0
 1720 0b67 03       		.uleb128 0x3
 1721 0b68 2E020000 		.4byte	.LASF151
 1722 0b6c 08       		.byte	0x8
 1723 0b6d 6B       		.byte	0x6b
 1724 0b6e 05       		.byte	0x5
 1725 0b6f A70A0000 		.4byte	0xaa7
 1726 0b73 04       		.uleb128 0x4
 1727 0b74 670B0000 		.4byte	0xb67
 1728 0b78 20       		.uleb128 0x20
 1729 0b79 DA000000 		.4byte	.LASF152
 1730 0b7d 01       		.byte	0x1
 1731 0b7e 35       		.byte	0x35
 1732 0b7f 10       		.byte	0x10
 1733 0b80 4D000000 		.4byte	0x4d
 1734 0b84 20       		.uleb128 0x20
 1735 0b85 2D070000 		.4byte	.LASF153
 1736 0b89 01       		.byte	0x1
 1737 0b8a 36       		.byte	0x36
 1738 0b8b 10       		.byte	0x10
 1739 0b8c 4D000000 		.4byte	0x4d
 1740 0b90 09       		.uleb128 0x9
 1741 0b91 FF020000 		.4byte	0x2ff
 1742 0b95 9B0B0000 		.4byte	0xb9b
 1743 0b99 22       		.uleb128 0x22
 1744 0b9a 00       		.byte	0
 1745 0b9b 20       		.uleb128 0x20
 1746 0b9c D9030000 		.4byte	.LASF154
 1747 0ba0 01       		.byte	0x1
 1748 0ba1 38       		.byte	0x38
 1749 0ba2 0F       		.byte	0xf
 1750 0ba3 900B0000 		.4byte	0xb90
 1751 0ba7 20       		.uleb128 0x20
 1752 0ba8 86000000 		.4byte	.LASF155
 1753 0bac 01       		.byte	0x1
 1754 0bad 39       		.byte	0x39
 1755 0bae 0F       		.byte	0xf
 1756 0baf 900B0000 		.4byte	0xb90
 1757 0bb3 03       		.uleb128 0x3
 1758 0bb4 2B060000 		.4byte	.LASF156
 1759 0bb8 01       		.byte	0x1
 1760 0bb9 3B       		.byte	0x3b
 1761 0bba 10       		.byte	0x10
 1762 0bbb FF020000 		.4byte	0x2ff
ARM GAS  /tmp/ccIOiVfl.s 			page 32


 1763 0bbf 23       		.uleb128 0x23
 1764 0bc0 3E050000 		.4byte	.LASF175
 1765 0bc4 01       		.byte	0x1
 1766 0bc5 49       		.byte	0x49
 1767 0bc6 26       		.byte	0x26
 1768 0bc7 730B0000 		.4byte	0xb73
 1769 0bcb 05       		.uleb128 0x5
 1770 0bcc 03       		.byte	0x3
 1771 0bcd 00000000 		.4byte	s_hook_table
 1772 0bd1 24       		.uleb128 0x24
 1773 0bd2 07000000 		.4byte	.LASF159
 1774 0bd6 01       		.byte	0x1
 1775 0bd7 97       		.byte	0x97
 1776 0bd8 06       		.byte	0x6
 1777 0bd9 04000000 		.4byte	.LFB233
 1778 0bdd 02000000 		.4byte	.LFE233-.LFB233
 1779 0be1 01       		.uleb128 0x1
 1780 0be2 9C       		.byte	0x9c
 1781 0be3 040C0000 		.4byte	0xc04
 1782 0be7 25       		.uleb128 0x25
 1783 0be8 6A000000 		.4byte	.LASF157
 1784 0bec 01       		.byte	0x1
 1785 0bed 97       		.byte	0x97
 1786 0bee 1A       		.byte	0x1a
 1787 0bef 4D000000 		.4byte	0x4d
 1788 0bf3 01       		.uleb128 0x1
 1789 0bf4 50       		.byte	0x50
 1790 0bf5 25       		.uleb128 0x25
 1791 0bf6 B8010000 		.4byte	.LASF158
 1792 0bfa 01       		.byte	0x1
 1793 0bfb 97       		.byte	0x97
 1794 0bfc 29       		.byte	0x29
 1795 0bfd 33000000 		.4byte	0x33
 1796 0c01 01       		.uleb128 0x1
 1797 0c02 51       		.byte	0x51
 1798 0c03 00       		.byte	0
 1799 0c04 26       		.uleb128 0x26
 1800 0c05 C9010000 		.4byte	.LASF176
 1801 0c09 01       		.byte	0x1
 1802 0c0a 91       		.byte	0x91
 1803 0c0b 06       		.byte	0x6
 1804 0c0c 27       		.uleb128 0x27
 1805 0c0d CD070000 		.4byte	.LASF177
 1806 0c11 01       		.byte	0x1
 1807 0c12 8B       		.byte	0x8b
 1808 0c13 06       		.byte	0x6
 1809 0c14 01       		.byte	0x1
 1810 0c15 24       		.uleb128 0x24
 1811 0c16 5C050000 		.4byte	.LASF160
 1812 0c1a 01       		.byte	0x1
 1813 0c1b 7F       		.byte	0x7f
 1814 0c1c 06       		.byte	0x6
 1815 0c1d 00000000 		.4byte	.LFB230
 1816 0c21 02000000 		.4byte	.LFE230-.LFB230
 1817 0c25 01       		.uleb128 0x1
 1818 0c26 9C       		.byte	0x9c
 1819 0c27 730C0000 		.4byte	0xc73
ARM GAS  /tmp/ccIOiVfl.s 			page 33


 1820 0c2b 25       		.uleb128 0x25
 1821 0c2c AD040000 		.4byte	.LASF161
 1822 0c30 01       		.byte	0x1
 1823 0c31 7F       		.byte	0x7f
 1824 0c32 21       		.byte	0x21
 1825 0c33 550A0000 		.4byte	0xa55
 1826 0c37 01       		.uleb128 0x1
 1827 0c38 50       		.byte	0x50
 1828 0c39 25       		.uleb128 0x25
 1829 0c3a F6040000 		.4byte	.LASF162
 1830 0c3e 01       		.byte	0x1
 1831 0c3f 7F       		.byte	0x7f
 1832 0c40 31       		.byte	0x31
 1833 0c41 5B0A0000 		.4byte	0xa5b
 1834 0c45 01       		.uleb128 0x1
 1835 0c46 51       		.byte	0x51
 1836 0c47 25       		.uleb128 0x25
 1837 0c48 00000000 		.4byte	.LASF163
 1838 0c4c 01       		.byte	0x1
 1839 0c4d 80       		.byte	0x80
 1840 0c4e 21       		.byte	0x21
 1841 0c4f 550A0000 		.4byte	0xa55
 1842 0c53 01       		.uleb128 0x1
 1843 0c54 52       		.byte	0x52
 1844 0c55 25       		.uleb128 0x25
 1845 0c56 FE040000 		.4byte	.LASF164
 1846 0c5a 01       		.byte	0x1
 1847 0c5b 80       		.byte	0x80
 1848 0c5c 30       		.byte	0x30
 1849 0c5d 5B0A0000 		.4byte	0xa5b
 1850 0c61 01       		.uleb128 0x1
 1851 0c62 53       		.byte	0x53
 1852 0c63 25       		.uleb128 0x25
 1853 0c64 EC030000 		.4byte	.LASF165
 1854 0c68 01       		.byte	0x1
 1855 0c69 81       		.byte	0x81
 1856 0c6a 1D       		.byte	0x1d
 1857 0c6b 6C000000 		.4byte	0x6c
 1858 0c6f 02       		.uleb128 0x2
 1859 0c70 91       		.byte	0x91
 1860 0c71 00       		.sleb128 0
 1861 0c72 00       		.byte	0
 1862 0c73 24       		.uleb128 0x24
 1863 0c74 6A050000 		.4byte	.LASF166
 1864 0c78 01       		.byte	0x1
 1865 0c79 78       		.byte	0x78
 1866 0c7a 06       		.byte	0x6
 1867 0c7b 08000000 		.4byte	.LFB229
 1868 0c7f 02000000 		.4byte	.LFE229-.LFB229
 1869 0c83 01       		.uleb128 0x1
 1870 0c84 9C       		.byte	0x9c
 1871 0c85 A60C0000 		.4byte	0xca6
 1872 0c89 25       		.uleb128 0x25
 1873 0c8a 70000000 		.4byte	.LASF143
 1874 0c8e 01       		.byte	0x1
 1875 0c8f 78       		.byte	0x78
 1876 0c90 1A       		.byte	0x1a
ARM GAS  /tmp/ccIOiVfl.s 			page 34


 1877 0c91 6C000000 		.4byte	0x6c
 1878 0c95 01       		.uleb128 0x1
 1879 0c96 50       		.byte	0x50
 1880 0c97 28       		.uleb128 0x28
 1881 0c98 61706900 		.ascii	"api\000"
 1882 0c9c 01       		.byte	0x1
 1883 0c9d 78       		.byte	0x78
 1884 0c9e 2D       		.byte	0x2d
 1885 0c9f 6C000000 		.4byte	0x6c
 1886 0ca3 01       		.uleb128 0x1
 1887 0ca4 51       		.byte	0x51
 1888 0ca5 00       		.byte	0
 1889 0ca6 29       		.uleb128 0x29
 1890 0ca7 E9050000 		.4byte	.LASF167
 1891 0cab 01       		.byte	0x1
 1892 0cac 62       		.byte	0x62
 1893 0cad 06       		.byte	0x6
 1894 0cae 0A000000 		.4byte	.LFB228
 1895 0cb2 4E000000 		.4byte	.LFE228-.LFB228
 1896 0cb6 01       		.uleb128 0x1
 1897 0cb7 9C       		.byte	0x9c
 1898 0cb8 5C0D0000 		.4byte	0xd5c
 1899 0cbc 2A       		.uleb128 0x2a
 1900 0cbd 70000000 		.4byte	.LASF143
 1901 0cc1 01       		.byte	0x1
 1902 0cc2 62       		.byte	0x62
 1903 0cc3 16       		.byte	0x16
 1904 0cc4 6C000000 		.4byte	0x6c
 1905 0cc8 08000000 		.4byte	.LLST0
 1906 0ccc 00000000 		.4byte	.LVUS0
 1907 0cd0 2B       		.uleb128 0x2b
 1908 0cd1 61706900 		.ascii	"api\000"
 1909 0cd5 01       		.byte	0x1
 1910 0cd6 62       		.byte	0x62
 1911 0cd7 29       		.byte	0x29
 1912 0cd8 6C000000 		.4byte	0x6c
 1913 0cdc 4A000000 		.4byte	.LLST1
 1914 0ce0 42000000 		.4byte	.LVUS1
 1915 0ce4 2C       		.uleb128 0x2c
 1916 0ce5 80000000 		.4byte	.LASF168
 1917 0ce9 01       		.byte	0x1
 1918 0cea 65       		.byte	0x65
 1919 0ceb 18       		.byte	0x18
 1920 0cec 620D0000 		.4byte	0xd62
 1921 0cf0 8C000000 		.4byte	.LLST2
 1922 0cf4 84000000 		.4byte	.LVUS2
 1923 0cf8 2D       		.uleb128 0x2d
 1924 0cf9 7F050000 		.4byte	.LASF178
 1925 0cfd 01       		.byte	0x1
 1926 0cfe 66       		.byte	0x66
 1927 0cff 19       		.byte	0x19
 1928 0d00 6D0D0000 		.4byte	0xd6d
 1929 0d04 2C       		.uleb128 0x2c
 1930 0d05 5E030000 		.4byte	.LASF169
 1931 0d09 01       		.byte	0x1
 1932 0d0a 6C       		.byte	0x6c
 1933 0d0b 10       		.byte	0x10
ARM GAS  /tmp/ccIOiVfl.s 			page 35


 1934 0d0c A5000000 		.4byte	0xa5
 1935 0d10 C6000000 		.4byte	.LLST3
 1936 0d14 C2000000 		.4byte	.LVUS3
 1937 0d18 2E       		.uleb128 0x2e
 1938 0d19 00000000 		.4byte	.Ldebug_ranges0+0
 1939 0d1d 520D0000 		.4byte	0xd52
 1940 0d21 2F       		.uleb128 0x2f
 1941 0d22 6900     		.ascii	"i\000"
 1942 0d24 01       		.byte	0x1
 1943 0d25 6D       		.byte	0x6d
 1944 0d26 0F       		.byte	0xf
 1945 0d27 99000000 		.4byte	0x99
 1946 0d2b EA000000 		.4byte	.LLST4
 1947 0d2f E4000000 		.4byte	.LVUS4
 1948 0d33 30       		.uleb128 0x30
 1949 0d34 32000000 		.4byte	.LBB3
 1950 0d38 10000000 		.4byte	.LBE3-.LBB3
 1951 0d3c 2C       		.uleb128 0x2c
 1952 0d3d 37050000 		.4byte	.LASF170
 1953 0d41 01       		.byte	0x1
 1954 0d42 6E       		.byte	0x6e
 1955 0d43 11       		.byte	0x11
 1956 0d44 B30B0000 		.4byte	0xbb3
 1957 0d48 16010000 		.4byte	.LLST5
 1958 0d4c 14010000 		.4byte	.LVUS5
 1959 0d50 00       		.byte	0
 1960 0d51 00       		.byte	0
 1961 0d52 31       		.uleb128 0x31
 1962 0d53 28000000 		.4byte	.LVL7
 1963 0d57 730C0000 		.4byte	0xc73
 1964 0d5b 00       		.byte	0
 1965 0d5c 10       		.uleb128 0x10
 1966 0d5d 04       		.byte	0x4
 1967 0d5e 4D000000 		.4byte	0x4d
 1968 0d62 32       		.uleb128 0x32
 1969 0d63 5C0D0000 		.4byte	0xd5c
 1970 0d67 10       		.uleb128 0x10
 1971 0d68 04       		.byte	0x4
 1972 0d69 59000000 		.4byte	0x59
 1973 0d6d 04       		.uleb128 0x4
 1974 0d6e 670D0000 		.4byte	0xd67
 1975 0d72 33       		.uleb128 0x33
 1976 0d73 0C0C0000 		.4byte	0xc0c
 1977 0d77 02000000 		.4byte	.LFB231
 1978 0d7b 02000000 		.4byte	.LFE231-.LFB231
 1979 0d7f 01       		.uleb128 0x1
 1980 0d80 9C       		.byte	0x9c
 1981 0d81 00       		.byte	0
 1982              		.section	.debug_abbrev,"",%progbits
 1983              	.Ldebug_abbrev0:
 1984 0000 01       		.uleb128 0x1
 1985 0001 11       		.uleb128 0x11
 1986 0002 01       		.byte	0x1
 1987 0003 25       		.uleb128 0x25
 1988 0004 0E       		.uleb128 0xe
 1989 0005 13       		.uleb128 0x13
 1990 0006 0B       		.uleb128 0xb
ARM GAS  /tmp/ccIOiVfl.s 			page 36


 1991 0007 03       		.uleb128 0x3
 1992 0008 0E       		.uleb128 0xe
 1993 0009 1B       		.uleb128 0x1b
 1994 000a 0E       		.uleb128 0xe
 1995 000b 11       		.uleb128 0x11
 1996 000c 01       		.uleb128 0x1
 1997 000d 12       		.uleb128 0x12
 1998 000e 06       		.uleb128 0x6
 1999 000f 10       		.uleb128 0x10
 2000 0010 17       		.uleb128 0x17
 2001 0011 00       		.byte	0
 2002 0012 00       		.byte	0
 2003 0013 02       		.uleb128 0x2
 2004 0014 24       		.uleb128 0x24
 2005 0015 00       		.byte	0
 2006 0016 0B       		.uleb128 0xb
 2007 0017 0B       		.uleb128 0xb
 2008 0018 3E       		.uleb128 0x3e
 2009 0019 0B       		.uleb128 0xb
 2010 001a 03       		.uleb128 0x3
 2011 001b 0E       		.uleb128 0xe
 2012 001c 00       		.byte	0
 2013 001d 00       		.byte	0
 2014 001e 03       		.uleb128 0x3
 2015 001f 16       		.uleb128 0x16
 2016 0020 00       		.byte	0
 2017 0021 03       		.uleb128 0x3
 2018 0022 0E       		.uleb128 0xe
 2019 0023 3A       		.uleb128 0x3a
 2020 0024 0B       		.uleb128 0xb
 2021 0025 3B       		.uleb128 0x3b
 2022 0026 0B       		.uleb128 0xb
 2023 0027 39       		.uleb128 0x39
 2024 0028 0B       		.uleb128 0xb
 2025 0029 49       		.uleb128 0x49
 2026 002a 13       		.uleb128 0x13
 2027 002b 00       		.byte	0
 2028 002c 00       		.byte	0
 2029 002d 04       		.uleb128 0x4
 2030 002e 26       		.uleb128 0x26
 2031 002f 00       		.byte	0
 2032 0030 49       		.uleb128 0x49
 2033 0031 13       		.uleb128 0x13
 2034 0032 00       		.byte	0
 2035 0033 00       		.byte	0
 2036 0034 05       		.uleb128 0x5
 2037 0035 24       		.uleb128 0x24
 2038 0036 00       		.byte	0
 2039 0037 0B       		.uleb128 0xb
 2040 0038 0B       		.uleb128 0xb
 2041 0039 3E       		.uleb128 0x3e
 2042 003a 0B       		.uleb128 0xb
 2043 003b 03       		.uleb128 0x3
 2044 003c 08       		.uleb128 0x8
 2045 003d 00       		.byte	0
 2046 003e 00       		.byte	0
 2047 003f 06       		.uleb128 0x6
ARM GAS  /tmp/ccIOiVfl.s 			page 37


 2048 0040 16       		.uleb128 0x16
 2049 0041 00       		.byte	0
 2050 0042 03       		.uleb128 0x3
 2051 0043 0E       		.uleb128 0xe
 2052 0044 3A       		.uleb128 0x3a
 2053 0045 0B       		.uleb128 0xb
 2054 0046 3B       		.uleb128 0x3b
 2055 0047 05       		.uleb128 0x5
 2056 0048 39       		.uleb128 0x39
 2057 0049 0B       		.uleb128 0xb
 2058 004a 49       		.uleb128 0x49
 2059 004b 13       		.uleb128 0x13
 2060 004c 00       		.byte	0
 2061 004d 00       		.byte	0
 2062 004e 07       		.uleb128 0x7
 2063 004f 17       		.uleb128 0x17
 2064 0050 01       		.byte	0x1
 2065 0051 0B       		.uleb128 0xb
 2066 0052 0B       		.uleb128 0xb
 2067 0053 3A       		.uleb128 0x3a
 2068 0054 0B       		.uleb128 0xb
 2069 0055 3B       		.uleb128 0x3b
 2070 0056 0B       		.uleb128 0xb
 2071 0057 39       		.uleb128 0x39
 2072 0058 0B       		.uleb128 0xb
 2073 0059 01       		.uleb128 0x1
 2074 005a 13       		.uleb128 0x13
 2075 005b 00       		.byte	0
 2076 005c 00       		.byte	0
 2077 005d 08       		.uleb128 0x8
 2078 005e 0D       		.uleb128 0xd
 2079 005f 00       		.byte	0
 2080 0060 03       		.uleb128 0x3
 2081 0061 0E       		.uleb128 0xe
 2082 0062 3A       		.uleb128 0x3a
 2083 0063 0B       		.uleb128 0xb
 2084 0064 3B       		.uleb128 0x3b
 2085 0065 0B       		.uleb128 0xb
 2086 0066 39       		.uleb128 0x39
 2087 0067 0B       		.uleb128 0xb
 2088 0068 49       		.uleb128 0x49
 2089 0069 13       		.uleb128 0x13
 2090 006a 00       		.byte	0
 2091 006b 00       		.byte	0
 2092 006c 09       		.uleb128 0x9
 2093 006d 01       		.uleb128 0x1
 2094 006e 01       		.byte	0x1
 2095 006f 49       		.uleb128 0x49
 2096 0070 13       		.uleb128 0x13
 2097 0071 01       		.uleb128 0x1
 2098 0072 13       		.uleb128 0x13
 2099 0073 00       		.byte	0
 2100 0074 00       		.byte	0
 2101 0075 0A       		.uleb128 0xa
 2102 0076 21       		.uleb128 0x21
 2103 0077 00       		.byte	0
 2104 0078 49       		.uleb128 0x49
ARM GAS  /tmp/ccIOiVfl.s 			page 38


 2105 0079 13       		.uleb128 0x13
 2106 007a 2F       		.uleb128 0x2f
 2107 007b 0B       		.uleb128 0xb
 2108 007c 00       		.byte	0
 2109 007d 00       		.byte	0
 2110 007e 0B       		.uleb128 0xb
 2111 007f 13       		.uleb128 0x13
 2112 0080 01       		.byte	0x1
 2113 0081 0B       		.uleb128 0xb
 2114 0082 0B       		.uleb128 0xb
 2115 0083 3A       		.uleb128 0x3a
 2116 0084 0B       		.uleb128 0xb
 2117 0085 3B       		.uleb128 0x3b
 2118 0086 0B       		.uleb128 0xb
 2119 0087 39       		.uleb128 0x39
 2120 0088 0B       		.uleb128 0xb
 2121 0089 01       		.uleb128 0x1
 2122 008a 13       		.uleb128 0x13
 2123 008b 00       		.byte	0
 2124 008c 00       		.byte	0
 2125 008d 0C       		.uleb128 0xc
 2126 008e 0D       		.uleb128 0xd
 2127 008f 00       		.byte	0
 2128 0090 03       		.uleb128 0x3
 2129 0091 0E       		.uleb128 0xe
 2130 0092 3A       		.uleb128 0x3a
 2131 0093 0B       		.uleb128 0xb
 2132 0094 3B       		.uleb128 0x3b
 2133 0095 0B       		.uleb128 0xb
 2134 0096 39       		.uleb128 0x39
 2135 0097 0B       		.uleb128 0xb
 2136 0098 49       		.uleb128 0x49
 2137 0099 13       		.uleb128 0x13
 2138 009a 38       		.uleb128 0x38
 2139 009b 0B       		.uleb128 0xb
 2140 009c 00       		.byte	0
 2141 009d 00       		.byte	0
 2142 009e 0D       		.uleb128 0xd
 2143 009f 0F       		.uleb128 0xf
 2144 00a0 00       		.byte	0
 2145 00a1 0B       		.uleb128 0xb
 2146 00a2 0B       		.uleb128 0xb
 2147 00a3 00       		.byte	0
 2148 00a4 00       		.byte	0
 2149 00a5 0E       		.uleb128 0xe
 2150 00a6 13       		.uleb128 0x13
 2151 00a7 01       		.byte	0x1
 2152 00a8 03       		.uleb128 0x3
 2153 00a9 0E       		.uleb128 0xe
 2154 00aa 0B       		.uleb128 0xb
 2155 00ab 0B       		.uleb128 0xb
 2156 00ac 3A       		.uleb128 0x3a
 2157 00ad 0B       		.uleb128 0xb
 2158 00ae 3B       		.uleb128 0x3b
 2159 00af 0B       		.uleb128 0xb
 2160 00b0 39       		.uleb128 0x39
 2161 00b1 0B       		.uleb128 0xb
ARM GAS  /tmp/ccIOiVfl.s 			page 39


 2162 00b2 01       		.uleb128 0x1
 2163 00b3 13       		.uleb128 0x13
 2164 00b4 00       		.byte	0
 2165 00b5 00       		.byte	0
 2166 00b6 0F       		.uleb128 0xf
 2167 00b7 0D       		.uleb128 0xd
 2168 00b8 00       		.byte	0
 2169 00b9 03       		.uleb128 0x3
 2170 00ba 08       		.uleb128 0x8
 2171 00bb 3A       		.uleb128 0x3a
 2172 00bc 0B       		.uleb128 0xb
 2173 00bd 3B       		.uleb128 0x3b
 2174 00be 0B       		.uleb128 0xb
 2175 00bf 39       		.uleb128 0x39
 2176 00c0 0B       		.uleb128 0xb
 2177 00c1 49       		.uleb128 0x49
 2178 00c2 13       		.uleb128 0x13
 2179 00c3 38       		.uleb128 0x38
 2180 00c4 0B       		.uleb128 0xb
 2181 00c5 00       		.byte	0
 2182 00c6 00       		.byte	0
 2183 00c7 10       		.uleb128 0x10
 2184 00c8 0F       		.uleb128 0xf
 2185 00c9 00       		.byte	0
 2186 00ca 0B       		.uleb128 0xb
 2187 00cb 0B       		.uleb128 0xb
 2188 00cc 49       		.uleb128 0x49
 2189 00cd 13       		.uleb128 0x13
 2190 00ce 00       		.byte	0
 2191 00cf 00       		.byte	0
 2192 00d0 11       		.uleb128 0x11
 2193 00d1 13       		.uleb128 0x13
 2194 00d2 01       		.byte	0x1
 2195 00d3 03       		.uleb128 0x3
 2196 00d4 0E       		.uleb128 0xe
 2197 00d5 0B       		.uleb128 0xb
 2198 00d6 05       		.uleb128 0x5
 2199 00d7 3A       		.uleb128 0x3a
 2200 00d8 0B       		.uleb128 0xb
 2201 00d9 3B       		.uleb128 0x3b
 2202 00da 0B       		.uleb128 0xb
 2203 00db 39       		.uleb128 0x39
 2204 00dc 0B       		.uleb128 0xb
 2205 00dd 01       		.uleb128 0x1
 2206 00de 13       		.uleb128 0x13
 2207 00df 00       		.byte	0
 2208 00e0 00       		.byte	0
 2209 00e1 12       		.uleb128 0x12
 2210 00e2 0D       		.uleb128 0xd
 2211 00e3 00       		.byte	0
 2212 00e4 03       		.uleb128 0x3
 2213 00e5 0E       		.uleb128 0xe
 2214 00e6 3A       		.uleb128 0x3a
 2215 00e7 0B       		.uleb128 0xb
 2216 00e8 3B       		.uleb128 0x3b
 2217 00e9 0B       		.uleb128 0xb
 2218 00ea 39       		.uleb128 0x39
ARM GAS  /tmp/ccIOiVfl.s 			page 40


 2219 00eb 0B       		.uleb128 0xb
 2220 00ec 49       		.uleb128 0x49
 2221 00ed 13       		.uleb128 0x13
 2222 00ee 38       		.uleb128 0x38
 2223 00ef 05       		.uleb128 0x5
 2224 00f0 00       		.byte	0
 2225 00f1 00       		.byte	0
 2226 00f2 13       		.uleb128 0x13
 2227 00f3 15       		.uleb128 0x15
 2228 00f4 00       		.byte	0
 2229 00f5 27       		.uleb128 0x27
 2230 00f6 19       		.uleb128 0x19
 2231 00f7 00       		.byte	0
 2232 00f8 00       		.byte	0
 2233 00f9 14       		.uleb128 0x14
 2234 00fa 15       		.uleb128 0x15
 2235 00fb 01       		.byte	0x1
 2236 00fc 27       		.uleb128 0x27
 2237 00fd 19       		.uleb128 0x19
 2238 00fe 49       		.uleb128 0x49
 2239 00ff 13       		.uleb128 0x13
 2240 0100 01       		.uleb128 0x1
 2241 0101 13       		.uleb128 0x13
 2242 0102 00       		.byte	0
 2243 0103 00       		.byte	0
 2244 0104 15       		.uleb128 0x15
 2245 0105 05       		.uleb128 0x5
 2246 0106 00       		.byte	0
 2247 0107 49       		.uleb128 0x49
 2248 0108 13       		.uleb128 0x13
 2249 0109 00       		.byte	0
 2250 010a 00       		.byte	0
 2251 010b 16       		.uleb128 0x16
 2252 010c 13       		.uleb128 0x13
 2253 010d 01       		.byte	0x1
 2254 010e 03       		.uleb128 0x3
 2255 010f 0E       		.uleb128 0xe
 2256 0110 0B       		.uleb128 0xb
 2257 0111 05       		.uleb128 0x5
 2258 0112 3A       		.uleb128 0x3a
 2259 0113 0B       		.uleb128 0xb
 2260 0114 3B       		.uleb128 0x3b
 2261 0115 05       		.uleb128 0x5
 2262 0116 39       		.uleb128 0x39
 2263 0117 0B       		.uleb128 0xb
 2264 0118 01       		.uleb128 0x1
 2265 0119 13       		.uleb128 0x13
 2266 011a 00       		.byte	0
 2267 011b 00       		.byte	0
 2268 011c 17       		.uleb128 0x17
 2269 011d 0D       		.uleb128 0xd
 2270 011e 00       		.byte	0
 2271 011f 03       		.uleb128 0x3
 2272 0120 0E       		.uleb128 0xe
 2273 0121 3A       		.uleb128 0x3a
 2274 0122 0B       		.uleb128 0xb
 2275 0123 3B       		.uleb128 0x3b
ARM GAS  /tmp/ccIOiVfl.s 			page 41


 2276 0124 05       		.uleb128 0x5
 2277 0125 39       		.uleb128 0x39
 2278 0126 0B       		.uleb128 0xb
 2279 0127 49       		.uleb128 0x49
 2280 0128 13       		.uleb128 0x13
 2281 0129 38       		.uleb128 0x38
 2282 012a 0B       		.uleb128 0xb
 2283 012b 00       		.byte	0
 2284 012c 00       		.byte	0
 2285 012d 18       		.uleb128 0x18
 2286 012e 0D       		.uleb128 0xd
 2287 012f 00       		.byte	0
 2288 0130 03       		.uleb128 0x3
 2289 0131 0E       		.uleb128 0xe
 2290 0132 3A       		.uleb128 0x3a
 2291 0133 0B       		.uleb128 0xb
 2292 0134 3B       		.uleb128 0x3b
 2293 0135 05       		.uleb128 0x5
 2294 0136 39       		.uleb128 0x39
 2295 0137 0B       		.uleb128 0xb
 2296 0138 49       		.uleb128 0x49
 2297 0139 13       		.uleb128 0x13
 2298 013a 38       		.uleb128 0x38
 2299 013b 05       		.uleb128 0x5
 2300 013c 00       		.byte	0
 2301 013d 00       		.byte	0
 2302 013e 19       		.uleb128 0x19
 2303 013f 13       		.uleb128 0x13
 2304 0140 01       		.byte	0x1
 2305 0141 03       		.uleb128 0x3
 2306 0142 0E       		.uleb128 0xe
 2307 0143 0B       		.uleb128 0xb
 2308 0144 0B       		.uleb128 0xb
 2309 0145 3A       		.uleb128 0x3a
 2310 0146 0B       		.uleb128 0xb
 2311 0147 3B       		.uleb128 0x3b
 2312 0148 05       		.uleb128 0x5
 2313 0149 39       		.uleb128 0x39
 2314 014a 0B       		.uleb128 0xb
 2315 014b 01       		.uleb128 0x1
 2316 014c 13       		.uleb128 0x13
 2317 014d 00       		.byte	0
 2318 014e 00       		.byte	0
 2319 014f 1A       		.uleb128 0x1a
 2320 0150 13       		.uleb128 0x13
 2321 0151 01       		.byte	0x1
 2322 0152 0B       		.uleb128 0xb
 2323 0153 0B       		.uleb128 0xb
 2324 0154 3A       		.uleb128 0x3a
 2325 0155 0B       		.uleb128 0xb
 2326 0156 3B       		.uleb128 0x3b
 2327 0157 05       		.uleb128 0x5
 2328 0158 39       		.uleb128 0x39
 2329 0159 0B       		.uleb128 0xb
 2330 015a 01       		.uleb128 0x1
 2331 015b 13       		.uleb128 0x13
 2332 015c 00       		.byte	0
ARM GAS  /tmp/ccIOiVfl.s 			page 42


 2333 015d 00       		.byte	0
 2334 015e 1B       		.uleb128 0x1b
 2335 015f 17       		.uleb128 0x17
 2336 0160 01       		.byte	0x1
 2337 0161 0B       		.uleb128 0xb
 2338 0162 0B       		.uleb128 0xb
 2339 0163 3A       		.uleb128 0x3a
 2340 0164 0B       		.uleb128 0xb
 2341 0165 3B       		.uleb128 0x3b
 2342 0166 05       		.uleb128 0x5
 2343 0167 39       		.uleb128 0x39
 2344 0168 0B       		.uleb128 0xb
 2345 0169 01       		.uleb128 0x1
 2346 016a 13       		.uleb128 0x13
 2347 016b 00       		.byte	0
 2348 016c 00       		.byte	0
 2349 016d 1C       		.uleb128 0x1c
 2350 016e 0D       		.uleb128 0xd
 2351 016f 00       		.byte	0
 2352 0170 03       		.uleb128 0x3
 2353 0171 0E       		.uleb128 0xe
 2354 0172 3A       		.uleb128 0x3a
 2355 0173 0B       		.uleb128 0xb
 2356 0174 3B       		.uleb128 0x3b
 2357 0175 05       		.uleb128 0x5
 2358 0176 39       		.uleb128 0x39
 2359 0177 0B       		.uleb128 0xb
 2360 0178 49       		.uleb128 0x49
 2361 0179 13       		.uleb128 0x13
 2362 017a 00       		.byte	0
 2363 017b 00       		.byte	0
 2364 017c 1D       		.uleb128 0x1d
 2365 017d 13       		.uleb128 0x13
 2366 017e 00       		.byte	0
 2367 017f 03       		.uleb128 0x3
 2368 0180 0E       		.uleb128 0xe
 2369 0181 3C       		.uleb128 0x3c
 2370 0182 19       		.uleb128 0x19
 2371 0183 00       		.byte	0
 2372 0184 00       		.byte	0
 2373 0185 1E       		.uleb128 0x1e
 2374 0186 15       		.uleb128 0x15
 2375 0187 01       		.byte	0x1
 2376 0188 27       		.uleb128 0x27
 2377 0189 19       		.uleb128 0x19
 2378 018a 01       		.uleb128 0x1
 2379 018b 13       		.uleb128 0x13
 2380 018c 00       		.byte	0
 2381 018d 00       		.byte	0
 2382 018e 1F       		.uleb128 0x1f
 2383 018f 34       		.uleb128 0x34
 2384 0190 00       		.byte	0
 2385 0191 03       		.uleb128 0x3
 2386 0192 0E       		.uleb128 0xe
 2387 0193 3A       		.uleb128 0x3a
 2388 0194 0B       		.uleb128 0xb
 2389 0195 3B       		.uleb128 0x3b
ARM GAS  /tmp/ccIOiVfl.s 			page 43


 2390 0196 05       		.uleb128 0x5
 2391 0197 39       		.uleb128 0x39
 2392 0198 0B       		.uleb128 0xb
 2393 0199 49       		.uleb128 0x49
 2394 019a 13       		.uleb128 0x13
 2395 019b 3F       		.uleb128 0x3f
 2396 019c 19       		.uleb128 0x19
 2397 019d 3C       		.uleb128 0x3c
 2398 019e 19       		.uleb128 0x19
 2399 019f 00       		.byte	0
 2400 01a0 00       		.byte	0
 2401 01a1 20       		.uleb128 0x20
 2402 01a2 34       		.uleb128 0x34
 2403 01a3 00       		.byte	0
 2404 01a4 03       		.uleb128 0x3
 2405 01a5 0E       		.uleb128 0xe
 2406 01a6 3A       		.uleb128 0x3a
 2407 01a7 0B       		.uleb128 0xb
 2408 01a8 3B       		.uleb128 0x3b
 2409 01a9 0B       		.uleb128 0xb
 2410 01aa 39       		.uleb128 0x39
 2411 01ab 0B       		.uleb128 0xb
 2412 01ac 49       		.uleb128 0x49
 2413 01ad 13       		.uleb128 0x13
 2414 01ae 3F       		.uleb128 0x3f
 2415 01af 19       		.uleb128 0x19
 2416 01b0 3C       		.uleb128 0x3c
 2417 01b1 19       		.uleb128 0x19
 2418 01b2 00       		.byte	0
 2419 01b3 00       		.byte	0
 2420 01b4 21       		.uleb128 0x21
 2421 01b5 21       		.uleb128 0x21
 2422 01b6 00       		.byte	0
 2423 01b7 49       		.uleb128 0x49
 2424 01b8 13       		.uleb128 0x13
 2425 01b9 2F       		.uleb128 0x2f
 2426 01ba 05       		.uleb128 0x5
 2427 01bb 00       		.byte	0
 2428 01bc 00       		.byte	0
 2429 01bd 22       		.uleb128 0x22
 2430 01be 21       		.uleb128 0x21
 2431 01bf 00       		.byte	0
 2432 01c0 00       		.byte	0
 2433 01c1 00       		.byte	0
 2434 01c2 23       		.uleb128 0x23
 2435 01c3 34       		.uleb128 0x34
 2436 01c4 00       		.byte	0
 2437 01c5 03       		.uleb128 0x3
 2438 01c6 0E       		.uleb128 0xe
 2439 01c7 3A       		.uleb128 0x3a
 2440 01c8 0B       		.uleb128 0xb
 2441 01c9 3B       		.uleb128 0x3b
 2442 01ca 0B       		.uleb128 0xb
 2443 01cb 39       		.uleb128 0x39
 2444 01cc 0B       		.uleb128 0xb
 2445 01cd 49       		.uleb128 0x49
 2446 01ce 13       		.uleb128 0x13
ARM GAS  /tmp/ccIOiVfl.s 			page 44


 2447 01cf 02       		.uleb128 0x2
 2448 01d0 18       		.uleb128 0x18
 2449 01d1 00       		.byte	0
 2450 01d2 00       		.byte	0
 2451 01d3 24       		.uleb128 0x24
 2452 01d4 2E       		.uleb128 0x2e
 2453 01d5 01       		.byte	0x1
 2454 01d6 3F       		.uleb128 0x3f
 2455 01d7 19       		.uleb128 0x19
 2456 01d8 03       		.uleb128 0x3
 2457 01d9 0E       		.uleb128 0xe
 2458 01da 3A       		.uleb128 0x3a
 2459 01db 0B       		.uleb128 0xb
 2460 01dc 3B       		.uleb128 0x3b
 2461 01dd 0B       		.uleb128 0xb
 2462 01de 39       		.uleb128 0x39
 2463 01df 0B       		.uleb128 0xb
 2464 01e0 27       		.uleb128 0x27
 2465 01e1 19       		.uleb128 0x19
 2466 01e2 11       		.uleb128 0x11
 2467 01e3 01       		.uleb128 0x1
 2468 01e4 12       		.uleb128 0x12
 2469 01e5 06       		.uleb128 0x6
 2470 01e6 40       		.uleb128 0x40
 2471 01e7 18       		.uleb128 0x18
 2472 01e8 9742     		.uleb128 0x2117
 2473 01ea 19       		.uleb128 0x19
 2474 01eb 01       		.uleb128 0x1
 2475 01ec 13       		.uleb128 0x13
 2476 01ed 00       		.byte	0
 2477 01ee 00       		.byte	0
 2478 01ef 25       		.uleb128 0x25
 2479 01f0 05       		.uleb128 0x5
 2480 01f1 00       		.byte	0
 2481 01f2 03       		.uleb128 0x3
 2482 01f3 0E       		.uleb128 0xe
 2483 01f4 3A       		.uleb128 0x3a
 2484 01f5 0B       		.uleb128 0xb
 2485 01f6 3B       		.uleb128 0x3b
 2486 01f7 0B       		.uleb128 0xb
 2487 01f8 39       		.uleb128 0x39
 2488 01f9 0B       		.uleb128 0xb
 2489 01fa 49       		.uleb128 0x49
 2490 01fb 13       		.uleb128 0x13
 2491 01fc 02       		.uleb128 0x2
 2492 01fd 18       		.uleb128 0x18
 2493 01fe 00       		.byte	0
 2494 01ff 00       		.byte	0
 2495 0200 26       		.uleb128 0x26
 2496 0201 2E       		.uleb128 0x2e
 2497 0202 00       		.byte	0
 2498 0203 3F       		.uleb128 0x3f
 2499 0204 19       		.uleb128 0x19
 2500 0205 03       		.uleb128 0x3
 2501 0206 0E       		.uleb128 0xe
 2502 0207 3A       		.uleb128 0x3a
 2503 0208 0B       		.uleb128 0xb
ARM GAS  /tmp/ccIOiVfl.s 			page 45


 2504 0209 3B       		.uleb128 0x3b
 2505 020a 0B       		.uleb128 0xb
 2506 020b 39       		.uleb128 0x39
 2507 020c 0B       		.uleb128 0xb
 2508 020d 27       		.uleb128 0x27
 2509 020e 19       		.uleb128 0x19
 2510 020f 00       		.byte	0
 2511 0210 00       		.byte	0
 2512 0211 27       		.uleb128 0x27
 2513 0212 2E       		.uleb128 0x2e
 2514 0213 00       		.byte	0
 2515 0214 3F       		.uleb128 0x3f
 2516 0215 19       		.uleb128 0x19
 2517 0216 03       		.uleb128 0x3
 2518 0217 0E       		.uleb128 0xe
 2519 0218 3A       		.uleb128 0x3a
 2520 0219 0B       		.uleb128 0xb
 2521 021a 3B       		.uleb128 0x3b
 2522 021b 0B       		.uleb128 0xb
 2523 021c 39       		.uleb128 0x39
 2524 021d 0B       		.uleb128 0xb
 2525 021e 27       		.uleb128 0x27
 2526 021f 19       		.uleb128 0x19
 2527 0220 20       		.uleb128 0x20
 2528 0221 0B       		.uleb128 0xb
 2529 0222 00       		.byte	0
 2530 0223 00       		.byte	0
 2531 0224 28       		.uleb128 0x28
 2532 0225 05       		.uleb128 0x5
 2533 0226 00       		.byte	0
 2534 0227 03       		.uleb128 0x3
 2535 0228 08       		.uleb128 0x8
 2536 0229 3A       		.uleb128 0x3a
 2537 022a 0B       		.uleb128 0xb
 2538 022b 3B       		.uleb128 0x3b
 2539 022c 0B       		.uleb128 0xb
 2540 022d 39       		.uleb128 0x39
 2541 022e 0B       		.uleb128 0xb
 2542 022f 49       		.uleb128 0x49
 2543 0230 13       		.uleb128 0x13
 2544 0231 02       		.uleb128 0x2
 2545 0232 18       		.uleb128 0x18
 2546 0233 00       		.byte	0
 2547 0234 00       		.byte	0
 2548 0235 29       		.uleb128 0x29
 2549 0236 2E       		.uleb128 0x2e
 2550 0237 01       		.byte	0x1
 2551 0238 3F       		.uleb128 0x3f
 2552 0239 19       		.uleb128 0x19
 2553 023a 03       		.uleb128 0x3
 2554 023b 0E       		.uleb128 0xe
 2555 023c 3A       		.uleb128 0x3a
 2556 023d 0B       		.uleb128 0xb
 2557 023e 3B       		.uleb128 0x3b
 2558 023f 0B       		.uleb128 0xb
 2559 0240 39       		.uleb128 0x39
 2560 0241 0B       		.uleb128 0xb
ARM GAS  /tmp/ccIOiVfl.s 			page 46


 2561 0242 27       		.uleb128 0x27
 2562 0243 19       		.uleb128 0x19
 2563 0244 11       		.uleb128 0x11
 2564 0245 01       		.uleb128 0x1
 2565 0246 12       		.uleb128 0x12
 2566 0247 06       		.uleb128 0x6
 2567 0248 40       		.uleb128 0x40
 2568 0249 18       		.uleb128 0x18
 2569 024a 9642     		.uleb128 0x2116
 2570 024c 19       		.uleb128 0x19
 2571 024d 01       		.uleb128 0x1
 2572 024e 13       		.uleb128 0x13
 2573 024f 00       		.byte	0
 2574 0250 00       		.byte	0
 2575 0251 2A       		.uleb128 0x2a
 2576 0252 05       		.uleb128 0x5
 2577 0253 00       		.byte	0
 2578 0254 03       		.uleb128 0x3
 2579 0255 0E       		.uleb128 0xe
 2580 0256 3A       		.uleb128 0x3a
 2581 0257 0B       		.uleb128 0xb
 2582 0258 3B       		.uleb128 0x3b
 2583 0259 0B       		.uleb128 0xb
 2584 025a 39       		.uleb128 0x39
 2585 025b 0B       		.uleb128 0xb
 2586 025c 49       		.uleb128 0x49
 2587 025d 13       		.uleb128 0x13
 2588 025e 02       		.uleb128 0x2
 2589 025f 17       		.uleb128 0x17
 2590 0260 B742     		.uleb128 0x2137
 2591 0262 17       		.uleb128 0x17
 2592 0263 00       		.byte	0
 2593 0264 00       		.byte	0
 2594 0265 2B       		.uleb128 0x2b
 2595 0266 05       		.uleb128 0x5
 2596 0267 00       		.byte	0
 2597 0268 03       		.uleb128 0x3
 2598 0269 08       		.uleb128 0x8
 2599 026a 3A       		.uleb128 0x3a
 2600 026b 0B       		.uleb128 0xb
 2601 026c 3B       		.uleb128 0x3b
 2602 026d 0B       		.uleb128 0xb
 2603 026e 39       		.uleb128 0x39
 2604 026f 0B       		.uleb128 0xb
 2605 0270 49       		.uleb128 0x49
 2606 0271 13       		.uleb128 0x13
 2607 0272 02       		.uleb128 0x2
 2608 0273 17       		.uleb128 0x17
 2609 0274 B742     		.uleb128 0x2137
 2610 0276 17       		.uleb128 0x17
 2611 0277 00       		.byte	0
 2612 0278 00       		.byte	0
 2613 0279 2C       		.uleb128 0x2c
 2614 027a 34       		.uleb128 0x34
 2615 027b 00       		.byte	0
 2616 027c 03       		.uleb128 0x3
 2617 027d 0E       		.uleb128 0xe
ARM GAS  /tmp/ccIOiVfl.s 			page 47


 2618 027e 3A       		.uleb128 0x3a
 2619 027f 0B       		.uleb128 0xb
 2620 0280 3B       		.uleb128 0x3b
 2621 0281 0B       		.uleb128 0xb
 2622 0282 39       		.uleb128 0x39
 2623 0283 0B       		.uleb128 0xb
 2624 0284 49       		.uleb128 0x49
 2625 0285 13       		.uleb128 0x13
 2626 0286 02       		.uleb128 0x2
 2627 0287 17       		.uleb128 0x17
 2628 0288 B742     		.uleb128 0x2137
 2629 028a 17       		.uleb128 0x17
 2630 028b 00       		.byte	0
 2631 028c 00       		.byte	0
 2632 028d 2D       		.uleb128 0x2d
 2633 028e 34       		.uleb128 0x34
 2634 028f 00       		.byte	0
 2635 0290 03       		.uleb128 0x3
 2636 0291 0E       		.uleb128 0xe
 2637 0292 3A       		.uleb128 0x3a
 2638 0293 0B       		.uleb128 0xb
 2639 0294 3B       		.uleb128 0x3b
 2640 0295 0B       		.uleb128 0xb
 2641 0296 39       		.uleb128 0x39
 2642 0297 0B       		.uleb128 0xb
 2643 0298 49       		.uleb128 0x49
 2644 0299 13       		.uleb128 0x13
 2645 029a 00       		.byte	0
 2646 029b 00       		.byte	0
 2647 029c 2E       		.uleb128 0x2e
 2648 029d 0B       		.uleb128 0xb
 2649 029e 01       		.byte	0x1
 2650 029f 55       		.uleb128 0x55
 2651 02a0 17       		.uleb128 0x17
 2652 02a1 01       		.uleb128 0x1
 2653 02a2 13       		.uleb128 0x13
 2654 02a3 00       		.byte	0
 2655 02a4 00       		.byte	0
 2656 02a5 2F       		.uleb128 0x2f
 2657 02a6 34       		.uleb128 0x34
 2658 02a7 00       		.byte	0
 2659 02a8 03       		.uleb128 0x3
 2660 02a9 08       		.uleb128 0x8
 2661 02aa 3A       		.uleb128 0x3a
 2662 02ab 0B       		.uleb128 0xb
 2663 02ac 3B       		.uleb128 0x3b
 2664 02ad 0B       		.uleb128 0xb
 2665 02ae 39       		.uleb128 0x39
 2666 02af 0B       		.uleb128 0xb
 2667 02b0 49       		.uleb128 0x49
 2668 02b1 13       		.uleb128 0x13
 2669 02b2 02       		.uleb128 0x2
 2670 02b3 17       		.uleb128 0x17
 2671 02b4 B742     		.uleb128 0x2137
 2672 02b6 17       		.uleb128 0x17
 2673 02b7 00       		.byte	0
 2674 02b8 00       		.byte	0
ARM GAS  /tmp/ccIOiVfl.s 			page 48


 2675 02b9 30       		.uleb128 0x30
 2676 02ba 0B       		.uleb128 0xb
 2677 02bb 01       		.byte	0x1
 2678 02bc 11       		.uleb128 0x11
 2679 02bd 01       		.uleb128 0x1
 2680 02be 12       		.uleb128 0x12
 2681 02bf 06       		.uleb128 0x6
 2682 02c0 00       		.byte	0
 2683 02c1 00       		.byte	0
 2684 02c2 31       		.uleb128 0x31
 2685 02c3 898201   		.uleb128 0x4109
 2686 02c6 00       		.byte	0
 2687 02c7 11       		.uleb128 0x11
 2688 02c8 01       		.uleb128 0x1
 2689 02c9 31       		.uleb128 0x31
 2690 02ca 13       		.uleb128 0x13
 2691 02cb 00       		.byte	0
 2692 02cc 00       		.byte	0
 2693 02cd 32       		.uleb128 0x32
 2694 02ce 37       		.uleb128 0x37
 2695 02cf 00       		.byte	0
 2696 02d0 49       		.uleb128 0x49
 2697 02d1 13       		.uleb128 0x13
 2698 02d2 00       		.byte	0
 2699 02d3 00       		.byte	0
 2700 02d4 33       		.uleb128 0x33
 2701 02d5 2E       		.uleb128 0x2e
 2702 02d6 00       		.byte	0
 2703 02d7 31       		.uleb128 0x31
 2704 02d8 13       		.uleb128 0x13
 2705 02d9 11       		.uleb128 0x11
 2706 02da 01       		.uleb128 0x1
 2707 02db 12       		.uleb128 0x12
 2708 02dc 06       		.uleb128 0x6
 2709 02dd 40       		.uleb128 0x40
 2710 02de 18       		.uleb128 0x18
 2711 02df 9742     		.uleb128 0x2117
 2712 02e1 19       		.uleb128 0x19
 2713 02e2 00       		.byte	0
 2714 02e3 00       		.byte	0
 2715 02e4 00       		.byte	0
 2716              		.section	.debug_loc,"",%progbits
 2717              	.Ldebug_loc0:
 2718              	.LVUS0:
 2719 0000 00       		.uleb128 0
 2720 0001 00       		.uleb128 .LVU32
 2721 0002 00       		.uleb128 .LVU32
 2722 0003 00       		.uleb128 .LVU36
 2723 0004 00       		.uleb128 .LVU36
 2724 0005 00       		.uleb128 .LVU39
 2725 0006 00       		.uleb128 .LVU39
 2726 0007 00       		.uleb128 0
 2727              	.LLST0:
 2728 0008 0A000000 		.4byte	.LVL3-.Ltext0
 2729 000c 20000000 		.4byte	.LVL6-.Ltext0
 2730 0010 0100     		.2byte	0x1
 2731 0012 50       		.byte	0x50
ARM GAS  /tmp/ccIOiVfl.s 			page 49


 2732 0013 20000000 		.4byte	.LVL6-.Ltext0
 2733 0017 2C000000 		.4byte	.LVL8-.Ltext0
 2734 001b 0400     		.2byte	0x4
 2735 001d F3       		.byte	0xf3
 2736 001e 01       		.uleb128 0x1
 2737 001f 50       		.byte	0x50
 2738 0020 9F       		.byte	0x9f
 2739 0021 2C000000 		.4byte	.LVL8-.Ltext0
 2740 0025 32000000 		.4byte	.LVL10-.Ltext0
 2741 0029 0100     		.2byte	0x1
 2742 002b 50       		.byte	0x50
 2743 002c 32000000 		.4byte	.LVL10-.Ltext0
 2744 0030 58000000 		.4byte	.LFE228-.Ltext0
 2745 0034 0400     		.2byte	0x4
 2746 0036 F3       		.byte	0xf3
 2747 0037 01       		.uleb128 0x1
 2748 0038 50       		.byte	0x50
 2749 0039 9F       		.byte	0x9f
 2750 003a 00000000 		.4byte	0
 2751 003e 00000000 		.4byte	0
 2752              	.LVUS1:
 2753 0042 00       		.uleb128 0
 2754 0043 00       		.uleb128 .LVU32
 2755 0044 00       		.uleb128 .LVU32
 2756 0045 00       		.uleb128 .LVU36
 2757 0046 00       		.uleb128 .LVU36
 2758 0047 00       		.uleb128 .LVU39
 2759 0048 00       		.uleb128 .LVU39
 2760 0049 00       		.uleb128 0
 2761              	.LLST1:
 2762 004a 0A000000 		.4byte	.LVL3-.Ltext0
 2763 004e 20000000 		.4byte	.LVL6-.Ltext0
 2764 0052 0100     		.2byte	0x1
 2765 0054 51       		.byte	0x51
 2766 0055 20000000 		.4byte	.LVL6-.Ltext0
 2767 0059 2C000000 		.4byte	.LVL8-.Ltext0
 2768 005d 0400     		.2byte	0x4
 2769 005f F3       		.byte	0xf3
 2770 0060 01       		.uleb128 0x1
 2771 0061 51       		.byte	0x51
 2772 0062 9F       		.byte	0x9f
 2773 0063 2C000000 		.4byte	.LVL8-.Ltext0
 2774 0067 32000000 		.4byte	.LVL10-.Ltext0
 2775 006b 0100     		.2byte	0x1
 2776 006d 51       		.byte	0x51
 2777 006e 32000000 		.4byte	.LVL10-.Ltext0
 2778 0072 58000000 		.4byte	.LFE228-.Ltext0
 2779 0076 0400     		.2byte	0x4
 2780 0078 F3       		.byte	0xf3
 2781 0079 01       		.uleb128 0x1
 2782 007a 51       		.byte	0x51
 2783 007b 9F       		.byte	0x9f
 2784 007c 00000000 		.4byte	0
 2785 0080 00000000 		.4byte	0
 2786              	.LVUS2:
 2787 0084 00       		.uleb128 .LVU25
 2788 0085 00       		.uleb128 .LVU32
ARM GAS  /tmp/ccIOiVfl.s 			page 50


 2789 0086 00       		.uleb128 .LVU36
 2790 0087 01       		.uleb128 .LVU37
 2791 0088 01       		.uleb128 .LVU37
 2792 0089 00       		.uleb128 .LVU38
 2793 008a 00       		.uleb128 .LVU38
 2794 008b 00       		.uleb128 .LVU39
 2795              	.LLST2:
 2796 008c 12000000 		.4byte	.LVL4-.Ltext0
 2797 0090 20000000 		.4byte	.LVL6-.Ltext0
 2798 0094 0100     		.2byte	0x1
 2799 0096 53       		.byte	0x53
 2800 0097 2C000000 		.4byte	.LVL8-.Ltext0
 2801 009b 2C000000 		.4byte	.LVL8-.Ltext0
 2802 009f 0100     		.2byte	0x1
 2803 00a1 53       		.byte	0x53
 2804 00a2 2C000000 		.4byte	.LVL8-.Ltext0
 2805 00a6 30000000 		.4byte	.LVL9-.Ltext0
 2806 00aa 0300     		.2byte	0x3
 2807 00ac 73       		.byte	0x73
 2808 00ad 01       		.sleb128 1
 2809 00ae 9F       		.byte	0x9f
 2810 00af 30000000 		.4byte	.LVL9-.Ltext0
 2811 00b3 32000000 		.4byte	.LVL10-.Ltext0
 2812 00b7 0100     		.2byte	0x1
 2813 00b9 53       		.byte	0x53
 2814 00ba 00000000 		.4byte	0
 2815 00be 00000000 		.4byte	0
 2816              	.LVUS3:
 2817 00c2 00       		.uleb128 .LVU29
 2818 00c3 00       		.uleb128 .LVU36
 2819 00c4 00       		.uleb128 .LVU39
 2820 00c5 00       		.uleb128 0
 2821              	.LLST3:
 2822 00c6 1E000000 		.4byte	.LVL5-.Ltext0
 2823 00ca 2C000000 		.4byte	.LVL8-.Ltext0
 2824 00ce 0100     		.2byte	0x1
 2825 00d0 54       		.byte	0x54
 2826 00d1 32000000 		.4byte	.LVL10-.Ltext0
 2827 00d5 58000000 		.4byte	.LFE228-.Ltext0
 2828 00d9 0100     		.2byte	0x1
 2829 00db 54       		.byte	0x54
 2830 00dc 00000000 		.4byte	0
 2831 00e0 00000000 		.4byte	0
 2832              	.LVUS4:
 2833 00e4 02       		.uleb128 .LVU31
 2834 00e5 00       		.uleb128 .LVU32
 2835 00e6 00       		.uleb128 .LVU32
 2836 00e7 00       		.uleb128 .LVU36
 2837 00e8 00       		.uleb128 .LVU39
 2838 00e9 00       		.uleb128 0
 2839              	.LLST4:
 2840 00ea 1E000000 		.4byte	.LVL5-.Ltext0
 2841 00ee 20000000 		.4byte	.LVL6-.Ltext0
 2842 00f2 0200     		.2byte	0x2
 2843 00f4 30       		.byte	0x30
 2844 00f5 9F       		.byte	0x9f
 2845 00f6 20000000 		.4byte	.LVL6-.Ltext0
ARM GAS  /tmp/ccIOiVfl.s 			page 51


 2846 00fa 2C000000 		.4byte	.LVL8-.Ltext0
 2847 00fe 0100     		.2byte	0x1
 2848 0100 56       		.byte	0x56
 2849 0101 32000000 		.4byte	.LVL10-.Ltext0
 2850 0105 58000000 		.4byte	.LFE228-.Ltext0
 2851 0109 0100     		.2byte	0x1
 2852 010b 56       		.byte	0x56
 2853 010c 00000000 		.4byte	0
 2854 0110 00000000 		.4byte	0
 2855              	.LVUS5:
 2856 0114 00       		.uleb128 .LVU41
 2857 0115 00       		.uleb128 .LVU44
 2858              	.LLST5:
 2859 0116 36000000 		.4byte	.LVL11-.Ltext0
 2860 011a 3D000000 		.4byte	.LVL12-1-.Ltext0
 2861 011e 0100     		.2byte	0x1
 2862 0120 53       		.byte	0x53
 2863 0121 00000000 		.4byte	0
 2864 0125 00000000 		.4byte	0
 2865              		.section	.debug_aranges,"",%progbits
 2866 0000 1C000000 		.4byte	0x1c
 2867 0004 0200     		.2byte	0x2
 2868 0006 00000000 		.4byte	.Ldebug_info0
 2869 000a 04       		.byte	0x4
 2870 000b 00       		.byte	0
 2871 000c 0000     		.2byte	0
 2872 000e 0000     		.2byte	0
 2873 0010 00000000 		.4byte	.Ltext0
 2874 0014 58000000 		.4byte	.Letext0-.Ltext0
 2875 0018 00000000 		.4byte	0
 2876 001c 00000000 		.4byte	0
 2877              		.section	.debug_ranges,"",%progbits
 2878              	.Ldebug_ranges0:
 2879 0000 1E000000 		.4byte	.LBB2-.Ltext0
 2880 0004 24000000 		.4byte	.LBE2-.Ltext0
 2881 0008 32000000 		.4byte	.LBB4-.Ltext0
 2882 000c 58000000 		.4byte	.LBE4-.Ltext0
 2883 0010 00000000 		.4byte	0
 2884 0014 00000000 		.4byte	0
 2885              		.section	.debug_line,"",%progbits
 2886              	.Ldebug_line0:
 2887 0000 C7010000 		.section	.debug_str,"MS",%progbits,1
 2887      0300FA00 
 2887      00000201 
 2887      FB0E0D00 
 2887      01010101 
 2888              	.LASF163:
 2889 0000 7375625F 		.ascii	"sub_xn\000"
 2889      786E00
 2890              	.LASF159:
 2891 0007 5F686F6F 		.ascii	"_hook_param\000"
 2891      6B5F7061 
 2891      72616D00 
 2892              	.LASF40:
 2893 0013 5F6F6E5F 		.ascii	"_on_exit_args\000"
 2893      65786974 
 2893      5F617267 
ARM GAS  /tmp/ccIOiVfl.s 			page 52


 2893      7300
 2894              	.LASF108:
 2895 0021 5F776374 		.ascii	"_wctomb_state\000"
 2895      6F6D625F 
 2895      73746174 
 2895      6500
 2896              	.LASF105:
 2897 002f 5F723438 		.ascii	"_r48\000"
 2897      00
 2898              	.LASF110:
 2899 0034 5F736967 		.ascii	"_signal_buf\000"
 2899      6E616C5F 
 2899      62756600 
 2900              	.LASF11:
 2901 0040 756E7369 		.ascii	"unsigned int\000"
 2901      676E6564 
 2901      20696E74 
 2901      00
 2902              	.LASF134:
 2903 004d 62697472 		.ascii	"bitres_lut_f\000"
 2903      65735F6C 
 2903      75745F66 
 2903      00
 2904              	.LASF54:
 2905 005a 5F6C6266 		.ascii	"_lbfsize\000"
 2905      73697A65 
 2905      00
 2906              	.LASF52:
 2907 0063 5F666C61 		.ascii	"_flags\000"
 2907      677300
 2908              	.LASF157:
 2909 006a 696E6465 		.ascii	"index\000"
 2909      7800
 2910              	.LASF143:
 2911 0070 706C6174 		.ascii	"platform\000"
 2911      666F726D 
 2911      00
 2912              	.LASF69:
 2913 0079 5F657272 		.ascii	"_errno\000"
 2913      6E6F00
 2914              	.LASF168:
 2915 0080 6273735F 		.ascii	"bss_p\000"
 2915      7000
 2916              	.LASF155:
 2917 0086 5F5F696E 		.ascii	"__init_array_end\000"
 2917      69745F61 
 2917      72726179 
 2917      5F656E64 
 2917      00
 2918              	.LASF23:
 2919 0097 5F4C4F43 		.ascii	"_LOCK_RECURSIVE_T\000"
 2919      4B5F5245 
 2919      43555253 
 2919      4956455F 
 2919      5400
 2920              	.LASF56:
 2921 00a9 5F726561 		.ascii	"_read\000"
ARM GAS  /tmp/ccIOiVfl.s 			page 53


 2921      6400
 2922              	.LASF112:
 2923 00af 5F6D6272 		.ascii	"_mbrlen_state\000"
 2923      6C656E5F 
 2923      73746174 
 2923      6500
 2924              	.LASF71:
 2925 00bd 5F737464 		.ascii	"_stdout\000"
 2925      6F757400 
 2926              	.LASF16:
 2927 00c5 5F66706F 		.ascii	"_fpos_t\000"
 2927      735F7400 
 2928              	.LASF47:
 2929 00cd 5F666E73 		.ascii	"_fns\000"
 2929      00
 2930              	.LASF55:
 2931 00d2 5F636F6F 		.ascii	"_cookie\000"
 2931      6B696500 
 2932              	.LASF152:
 2933 00da 5F627373 		.ascii	"_bss_start\000"
 2933      5F737461 
 2933      727400
 2934              	.LASF129:
 2935 00e5 74616E70 		.ascii	"tanpi_lut_f\000"
 2935      695F6C75 
 2935      745F6600 
 2936              	.LASF29:
 2937 00f1 5F426967 		.ascii	"_Bigint\000"
 2937      696E7400 
 2938              	.LASF37:
 2939 00f9 5F5F746D 		.ascii	"__tm_wday\000"
 2939      5F776461 
 2939      7900
 2940              	.LASF79:
 2941 0103 5F726573 		.ascii	"_result\000"
 2941      756C7400 
 2942              	.LASF8:
 2943 010b 75696E74 		.ascii	"uint32_t\000"
 2943      33325F74 
 2943      00
 2944              	.LASF33:
 2945 0114 5F5F746D 		.ascii	"__tm_hour\000"
 2945      5F686F75 
 2945      7200
 2946              	.LASF19:
 2947 011e 5F5F636F 		.ascii	"__count\000"
 2947      756E7400 
 2948              	.LASF123:
 2949 0126 666C6F61 		.ascii	"float\000"
 2949      7400
 2950              	.LASF32:
 2951 012c 5F5F746D 		.ascii	"__tm_min\000"
 2951      5F6D696E 
 2951      00
 2952              	.LASF121:
 2953 0135 5F696D70 		.ascii	"_impure_ptr\000"
 2953      7572655F 
ARM GAS  /tmp/ccIOiVfl.s 			page 54


 2953      70747200 
 2954              	.LASF118:
 2955 0141 5F6E6578 		.ascii	"_nextf\000"
 2955      746600
 2956              	.LASF95:
 2957 0148 5F72616E 		.ascii	"_rand48\000"
 2957      64343800 
 2958              	.LASF80:
 2959 0150 5F726573 		.ascii	"_result_k\000"
 2959      756C745F 
 2959      6B00
 2960              	.LASF10:
 2961 015a 6C6F6E67 		.ascii	"long long unsigned int\000"
 2961      206C6F6E 
 2961      6720756E 
 2961      7369676E 
 2961      65642069 
 2962              	.LASF101:
 2963 0171 5F617363 		.ascii	"_asctime_buf\000"
 2963      74696D65 
 2963      5F627566 
 2963      00
 2964              	.LASF51:
 2965 017e 5F5F7346 		.ascii	"__sFILE\000"
 2965      494C4500 
 2966              	.LASF28:
 2967 0186 5F776473 		.ascii	"_wds\000"
 2967      00
 2968              	.LASF139:
 2969 018b 55736572 		.ascii	"UserModFXFuncParam\000"
 2969      4D6F6446 
 2969      5846756E 
 2969      63506172 
 2969      616D00
 2970              	.LASF91:
 2971 019e 5F5F4649 		.ascii	"__FILE\000"
 2971      4C4500
 2972              	.LASF63:
 2973 01a5 5F6F6666 		.ascii	"_offset\000"
 2973      73657400 
 2974              	.LASF149:
 2975 01ad 66756E63 		.ascii	"func_param\000"
 2975      5F706172 
 2975      616D00
 2976              	.LASF158:
 2977 01b8 76616C75 		.ascii	"value\000"
 2977      6500
 2978              	.LASF74:
 2979 01be 5F656D65 		.ascii	"_emergency\000"
 2979      7267656E 
 2979      637900
 2980              	.LASF176:
 2981 01c9 5F686F6F 		.ascii	"_hook_resume\000"
 2981      6B5F7265 
 2981      73756D65 
 2981      00
 2982              	.LASF12:
ARM GAS  /tmp/ccIOiVfl.s 			page 55


 2983 01d6 73697A65 		.ascii	"size_t\000"
 2983      5F7400
 2984              	.LASF146:
 2985 01dd 66756E63 		.ascii	"func_process\000"
 2985      5F70726F 
 2985      63657373 
 2985      00
 2986              	.LASF31:
 2987 01ea 5F5F746D 		.ascii	"__tm_sec\000"
 2987      5F736563 
 2987      00
 2988              	.LASF38:
 2989 01f3 5F5F746D 		.ascii	"__tm_yday\000"
 2989      5F796461 
 2989      7900
 2990              	.LASF73:
 2991 01fd 5F696E63 		.ascii	"_inc\000"
 2991      00
 2992              	.LASF46:
 2993 0202 5F696E64 		.ascii	"_ind\000"
 2993      00
 2994              	.LASF138:
 2995 0207 55736572 		.ascii	"UserModFXResume\000"
 2995      4D6F6446 
 2995      58526573 
 2995      756D6500 
 2996              	.LASF25:
 2997 0217 5F6E6578 		.ascii	"_next\000"
 2997      7400
 2998              	.LASF114:
 2999 021d 5F6D6273 		.ascii	"_mbsrtowcs_state\000"
 2999      72746F77 
 2999      63735F73 
 2999      74617465 
 2999      00
 3000              	.LASF151:
 3001 022e 75736572 		.ascii	"user_modfx_hook_table_t\000"
 3001      5F6D6F64 
 3001      66785F68 
 3001      6F6F6B5F 
 3001      7461626C 
 3002              	.LASF171:
 3003 0246 474E5520 		.ascii	"GNU C11 9.2.1 20191025 (release) [ARM/arm-9-branch "
 3003      43313120 
 3003      392E322E 
 3003      31203230 
 3003      31393130 
 3004 0279 72657669 		.ascii	"revision 277599] -mcpu=cortex-m4 -mthumb -mno-thumb"
 3004      73696F6E 
 3004      20323737 
 3004      3539395D 
 3004      202D6D63 
 3005 02ac 2D696E74 		.ascii	"-interwork -mlittle-endian -mfloat-abi=hard -mfpu=f"
 3005      6572776F 
 3005      726B202D 
 3005      6D6C6974 
 3005      746C652D 
ARM GAS  /tmp/ccIOiVfl.s 			page 56


 3006 02df 7076342D 		.ascii	"pv4-sp-d16 -mstructure-size-boundary=8 -march=armv7"
 3006      73702D64 
 3006      3136202D 
 3006      6D737472 
 3006      75637475 
 3007 0312 652D6D2B 		.ascii	"e-m+fp -g -Os -std=c11 -fsingle-precision-constant "
 3007      6670202D 
 3007      67202D4F 
 3007      73202D73 
 3007      74643D63 
 3008 0345 2D666368 		.ascii	"-fcheck-new\000"
 3008      65636B2D 
 3008      6E657700 
 3009              	.LASF20:
 3010 0351 5F5F7661 		.ascii	"__value\000"
 3010      6C756500 
 3011              	.LASF81:
 3012 0359 5F703573 		.ascii	"_p5s\000"
 3012      00
 3013              	.LASF169:
 3014 035e 636F756E 		.ascii	"count\000"
 3014      7400
 3015              	.LASF116:
 3016 0364 5F776373 		.ascii	"_wcsrtombs_state\000"
 3016      72746F6D 
 3016      62735F73 
 3016      74617465 
 3016      00
 3017              	.LASF106:
 3018 0375 5F6D626C 		.ascii	"_mblen_state\000"
 3018      656E5F73 
 3018      74617465 
 3018      00
 3019              	.LASF90:
 3020 0382 63686172 		.ascii	"char\000"
 3020      00
 3021              	.LASF34:
 3022 0387 5F5F746D 		.ascii	"__tm_mday\000"
 3022      5F6D6461 
 3022      7900
 3023              	.LASF131:
 3024 0391 706F7732 		.ascii	"pow2_lut_f\000"
 3024      5F6C7574 
 3024      5F6600
 3025              	.LASF87:
 3026 039c 5F736967 		.ascii	"_sig_func\000"
 3026      5F66756E 
 3026      6300
 3027              	.LASF113:
 3028 03a6 5F6D6272 		.ascii	"_mbrtowc_state\000"
 3028      746F7763 
 3028      5F737461 
 3028      746500
 3029              	.LASF86:
 3030 03b5 5F617465 		.ascii	"_atexit0\000"
 3030      78697430 
 3030      00
ARM GAS  /tmp/ccIOiVfl.s 			page 57


 3031              	.LASF125:
 3032 03be 6B5F6678 		.ascii	"k_fx_api_platform\000"
 3032      5F617069 
 3032      5F706C61 
 3032      74666F72 
 3032      6D00
 3033              	.LASF24:
 3034 03d0 5F666C6F 		.ascii	"_flock_t\000"
 3034      636B5F74 
 3034      00
 3035              	.LASF154:
 3036 03d9 5F5F696E 		.ascii	"__init_array_start\000"
 3036      69745F61 
 3036      72726179 
 3036      5F737461 
 3036      727400
 3037              	.LASF165:
 3038 03ec 6672616D 		.ascii	"frames\000"
 3038      657300
 3039              	.LASF133:
 3040 03f3 73636865 		.ascii	"schetzen_lut_f\000"
 3040      747A656E 
 3040      5F6C7574 
 3040      5F6600
 3041              	.LASF17:
 3042 0402 5F5F7763 		.ascii	"__wch\000"
 3042      6800
 3043              	.LASF94:
 3044 0408 5F696F62 		.ascii	"_iobs\000"
 3044      7300
 3045              	.LASF5:
 3046 040e 75696E74 		.ascii	"uint8_t\000"
 3046      385F7400 
 3047              	.LASF59:
 3048 0416 5F636C6F 		.ascii	"_close\000"
 3048      736500
 3049              	.LASF128:
 3050 041d 6C6F675F 		.ascii	"log_lut_f\000"
 3050      6C75745F 
 3050      6600
 3051              	.LASF77:
 3052 0427 5F5F7364 		.ascii	"__sdidinit\000"
 3052      6964696E 
 3052      697400
 3053              	.LASF137:
 3054 0432 55736572 		.ascii	"UserModFXSuspend\000"
 3054      4D6F6446 
 3054      58537573 
 3054      70656E64 
 3054      00
 3055              	.LASF70:
 3056 0443 5F737464 		.ascii	"_stdin\000"
 3056      696E00
 3057              	.LASF103:
 3058 044a 5F67616D 		.ascii	"_gamma_signgam\000"
 3058      6D615F73 
 3058      69676E67 
ARM GAS  /tmp/ccIOiVfl.s 			page 58


 3058      616D00
 3059              	.LASF3:
 3060 0459 6C6F6E67 		.ascii	"long long int\000"
 3060      206C6F6E 
 3060      6720696E 
 3060      7400
 3061              	.LASF49:
 3062 0467 5F626173 		.ascii	"_base\000"
 3062      6500
 3063              	.LASF82:
 3064 046d 5F667265 		.ascii	"_freelist\000"
 3064      656C6973 
 3064      7400
 3065              	.LASF97:
 3066 0477 5F6D756C 		.ascii	"_mult\000"
 3066      7400
 3067              	.LASF22:
 3068 047d 5F5F554C 		.ascii	"__ULong\000"
 3068      6F6E6700 
 3069              	.LASF135:
 3070 0485 55736572 		.ascii	"UserModFXFuncEntry\000"
 3070      4D6F6446 
 3070      5846756E 
 3070      63456E74 
 3070      727900
 3071              	.LASF115:
 3072 0498 5F776372 		.ascii	"_wcrtomb_state\000"
 3072      746F6D62 
 3072      5F737461 
 3072      746500
 3073              	.LASF53:
 3074 04a7 5F66696C 		.ascii	"_file\000"
 3074      6500
 3075              	.LASF161:
 3076 04ad 6D61696E 		.ascii	"main_xn\000"
 3076      5F786E00 
 3077              	.LASF78:
 3078 04b5 5F5F636C 		.ascii	"__cleanup\000"
 3078      65616E75 
 3078      7000
 3079              	.LASF21:
 3080 04bf 5F6D6273 		.ascii	"_mbstate_t\000"
 3080      74617465 
 3080      5F7400
 3081              	.LASF39:
 3082 04ca 5F5F746D 		.ascii	"__tm_isdst\000"
 3082      5F697364 
 3082      737400
 3083              	.LASF117:
 3084 04d5 5F685F65 		.ascii	"_h_errno\000"
 3084      72726E6F 
 3084      00
 3085              	.LASF145:
 3086 04de 66756E63 		.ascii	"func_entry\000"
 3086      5F656E74 
 3086      727900
 3087              	.LASF147:
ARM GAS  /tmp/ccIOiVfl.s 			page 59


 3088 04e9 66756E63 		.ascii	"func_suspend\000"
 3088      5F737573 
 3088      70656E64 
 3088      00
 3089              	.LASF162:
 3090 04f6 6D61696E 		.ascii	"main_yn\000"
 3090      5F796E00 
 3091              	.LASF164:
 3092 04fe 7375625F 		.ascii	"sub_yn\000"
 3092      796E00
 3093              	.LASF35:
 3094 0505 5F5F746D 		.ascii	"__tm_mon\000"
 3094      5F6D6F6E 
 3094      00
 3095              	.LASF13:
 3096 050e 6C6F6E67 		.ascii	"long double\000"
 3096      20646F75 
 3096      626C6500 
 3097              	.LASF57:
 3098 051a 5F777269 		.ascii	"_write\000"
 3098      746500
 3099              	.LASF141:
 3100 0521 75736572 		.ascii	"user_modfx_hook_table\000"
 3100      5F6D6F64 
 3100      66785F68 
 3100      6F6F6B5F 
 3100      7461626C 
 3101              	.LASF170:
 3102 0537 696E6974 		.ascii	"init_p\000"
 3102      5F7000
 3103              	.LASF175:
 3104 053e 735F686F 		.ascii	"s_hook_table\000"
 3104      6F6B5F74 
 3104      61626C65 
 3104      00
 3105              	.LASF45:
 3106 054b 5F617465 		.ascii	"_atexit\000"
 3106      78697400 
 3107              	.LASF66:
 3108 0553 5F6D6273 		.ascii	"_mbstate\000"
 3108      74617465 
 3108      00
 3109              	.LASF160:
 3110 055c 5F686F6F 		.ascii	"_hook_process\000"
 3110      6B5F7072 
 3110      6F636573 
 3110      7300
 3111              	.LASF166:
 3112 056a 5F686F6F 		.ascii	"_hook_init\000"
 3112      6B5F696E 
 3112      697400
 3113              	.LASF1:
 3114 0575 73686F72 		.ascii	"short int\000"
 3114      7420696E 
 3114      7400
 3115              	.LASF178:
 3116 057f 6273735F 		.ascii	"bss_e\000"
ARM GAS  /tmp/ccIOiVfl.s 			page 60


 3116      6500
 3117              	.LASF130:
 3118 0585 73717274 		.ascii	"sqrtm2log_lut_f\000"
 3118      6D326C6F 
 3118      675F6C75 
 3118      745F6600 
 3119              	.LASF132:
 3120 0595 63756269 		.ascii	"cubicsat_lut_f\000"
 3120      63736174 
 3120      5F6C7574 
 3120      5F6600
 3121              	.LASF2:
 3122 05a4 6C6F6E67 		.ascii	"long int\000"
 3122      20696E74 
 3122      00
 3123              	.LASF126:
 3124 05ad 6B5F6678 		.ascii	"k_fx_api_version\000"
 3124      5F617069 
 3124      5F766572 
 3124      73696F6E 
 3124      00
 3125              	.LASF89:
 3126 05be 5F5F7366 		.ascii	"__sf\000"
 3126      00
 3127              	.LASF27:
 3128 05c3 5F736967 		.ascii	"_sign\000"
 3128      6E00
 3129              	.LASF64:
 3130 05c9 5F646174 		.ascii	"_data\000"
 3130      6100
 3131              	.LASF18:
 3132 05cf 5F5F7763 		.ascii	"__wchb\000"
 3132      686200
 3133              	.LASF122:
 3134 05d6 5F676C6F 		.ascii	"_global_impure_ptr\000"
 3134      62616C5F 
 3134      696D7075 
 3134      72655F70 
 3134      747200
 3135              	.LASF167:
 3136 05e9 5F656E74 		.ascii	"_entry\000"
 3136      727900
 3137              	.LASF36:
 3138 05f0 5F5F746D 		.ascii	"__tm_year\000"
 3138      5F796561 
 3138      7200
 3139              	.LASF172:
 3140 05fa 2F776F72 		.ascii	"/workspace/nutekt-digital/tapewarble/tpl/_unit.c\000"
 3140      6B737061 
 3140      63652F6E 
 3140      7574656B 
 3140      742D6469 
 3141              	.LASF156:
 3142 062b 5F5F696E 		.ascii	"__init_fptr\000"
 3142      69745F66 
 3142      70747200 
 3143              	.LASF102:
ARM GAS  /tmp/ccIOiVfl.s 			page 61


 3144 0637 5F6C6F63 		.ascii	"_localtime_buf\000"
 3144      616C7469 
 3144      6D655F62 
 3144      756600
 3145              	.LASF144:
 3146 0646 72657365 		.ascii	"reserved0\000"
 3146      72766564 
 3146      3000
 3147              	.LASF150:
 3148 0650 72657365 		.ascii	"reserved1\000"
 3148      72766564 
 3148      3100
 3149              	.LASF120:
 3150 065a 5F756E75 		.ascii	"_unused\000"
 3150      73656400 
 3151              	.LASF85:
 3152 0662 5F6E6577 		.ascii	"_new\000"
 3152      00
 3153              	.LASF83:
 3154 0667 5F637674 		.ascii	"_cvtlen\000"
 3154      6C656E00 
 3155              	.LASF26:
 3156 066f 5F6D6178 		.ascii	"_maxwds\000"
 3156      77647300 
 3157              	.LASF109:
 3158 0677 5F6C3634 		.ascii	"_l64a_buf\000"
 3158      615F6275 
 3158      6600
 3159              	.LASF142:
 3160 0681 6D616769 		.ascii	"magic\000"
 3160      6300
 3161              	.LASF62:
 3162 0687 5F626C6B 		.ascii	"_blksize\000"
 3162      73697A65 
 3162      00
 3163              	.LASF30:
 3164 0690 5F5F746D 		.ascii	"__tm\000"
 3164      00
 3165              	.LASF65:
 3166 0695 5F6C6F63 		.ascii	"_lock\000"
 3166      6B00
 3167              	.LASF136:
 3168 069b 55736572 		.ascii	"UserModFXFuncProcess\000"
 3168      4D6F6446 
 3168      5846756E 
 3168      6350726F 
 3168      63657373 
 3169              	.LASF9:
 3170 06b0 6C6F6E67 		.ascii	"long unsigned int\000"
 3170      20756E73 
 3170      69676E65 
 3170      6420696E 
 3170      7400
 3171              	.LASF127:
 3172 06c2 77745F73 		.ascii	"wt_sine_lut_f\000"
 3172      696E655F 
 3172      6C75745F 
ARM GAS  /tmp/ccIOiVfl.s 			page 62


 3172      6600
 3173              	.LASF140:
 3174 06d0 55736572 		.ascii	"UserModFXFuncDummy\000"
 3174      4D6F6446 
 3174      5846756E 
 3174      6344756D 
 3174      6D7900
 3175              	.LASF93:
 3176 06e3 5F6E696F 		.ascii	"_niobs\000"
 3176      627300
 3177              	.LASF14:
 3178 06ea 77696E74 		.ascii	"wint_t\000"
 3178      5F7400
 3179              	.LASF4:
 3180 06f1 696E7433 		.ascii	"int32_t\000"
 3180      325F7400 
 3181              	.LASF42:
 3182 06f9 5F64736F 		.ascii	"_dso_handle\000"
 3182      5F68616E 
 3182      646C6500 
 3183              	.LASF84:
 3184 0705 5F637674 		.ascii	"_cvtbuf\000"
 3184      62756600 
 3185              	.LASF6:
 3186 070d 756E7369 		.ascii	"unsigned char\000"
 3186      676E6564 
 3186      20636861 
 3186      7200
 3187              	.LASF111:
 3188 071b 5F676574 		.ascii	"_getdate_err\000"
 3188      64617465 
 3188      5F657272 
 3188      00
 3189              	.LASF98:
 3190 0728 5F616464 		.ascii	"_add\000"
 3190      00
 3191              	.LASF153:
 3192 072d 5F627373 		.ascii	"_bss_end\000"
 3192      5F656E64 
 3192      00
 3193              	.LASF48:
 3194 0736 5F5F7362 		.ascii	"__sbuf\000"
 3194      756600
 3195              	.LASF92:
 3196 073d 5F676C75 		.ascii	"_glue\000"
 3196      6500
 3197              	.LASF88:
 3198 0743 5F5F7367 		.ascii	"__sglue\000"
 3198      6C756500 
 3199              	.LASF100:
 3200 074b 5F737472 		.ascii	"_strtok_last\000"
 3200      746F6B5F 
 3200      6C617374 
 3200      00
 3201              	.LASF107:
 3202 0758 5F6D6274 		.ascii	"_mbtowc_state\000"
 3202      6F77635F 
ARM GAS  /tmp/ccIOiVfl.s 			page 63


 3202      73746174 
 3202      6500
 3203              	.LASF173:
 3204 0766 2F776F72 		.ascii	"/workspace/nutekt-digital/tapewarble\000"
 3204      6B737061 
 3204      63652F6E 
 3204      7574656B 
 3204      742D6469 
 3205              	.LASF148:
 3206 078b 66756E63 		.ascii	"func_resume\000"
 3206      5F726573 
 3206      756D6500 
 3207              	.LASF76:
 3208 0797 5F6C6F63 		.ascii	"_locale\000"
 3208      616C6500 
 3209              	.LASF41:
 3210 079f 5F666E61 		.ascii	"_fnargs\000"
 3210      72677300 
 3211              	.LASF0:
 3212 07a7 7369676E 		.ascii	"signed char\000"
 3212      65642063 
 3212      68617200 
 3213              	.LASF68:
 3214 07b3 5F726565 		.ascii	"_reent\000"
 3214      6E7400
 3215              	.LASF7:
 3216 07ba 73686F72 		.ascii	"short unsigned int\000"
 3216      7420756E 
 3216      7369676E 
 3216      65642069 
 3216      6E7400
 3217              	.LASF177:
 3218 07cd 5F686F6F 		.ascii	"_hook_suspend\000"
 3218      6B5F7375 
 3218      7370656E 
 3218      6400
 3219              	.LASF43:
 3220 07db 5F666E74 		.ascii	"_fntypes\000"
 3220      79706573 
 3220      00
 3221              	.LASF50:
 3222 07e4 5F73697A 		.ascii	"_size\000"
 3222      6500
 3223              	.LASF124:
 3224 07ea 646F7562 		.ascii	"double\000"
 3224      6C6500
 3225              	.LASF15:
 3226 07f1 5F6F6666 		.ascii	"_off_t\000"
 3226      5F7400
 3227              	.LASF61:
 3228 07f8 5F6E6275 		.ascii	"_nbuf\000"
 3228      6600
 3229              	.LASF99:
 3230 07fe 5F756E75 		.ascii	"_unused_rand\000"
 3230      7365645F 
 3230      72616E64 
 3230      00
ARM GAS  /tmp/ccIOiVfl.s 			page 64


 3231              	.LASF75:
 3232 080b 5F756E73 		.ascii	"_unspecified_locale_info\000"
 3232      70656369 
 3232      66696564 
 3232      5F6C6F63 
 3232      616C655F 
 3233              	.LASF67:
 3234 0824 5F666C61 		.ascii	"_flags2\000"
 3234      67733200 
 3235              	.LASF44:
 3236 082c 5F69735F 		.ascii	"_is_cxa\000"
 3236      63786100 
 3237              	.LASF96:
 3238 0834 5F736565 		.ascii	"_seed\000"
 3238      6400
 3239              	.LASF104:
 3240 083a 5F72616E 		.ascii	"_rand_next\000"
 3240      645F6E65 
 3240      787400
 3241              	.LASF174:
 3242 0845 5F5F6C6F 		.ascii	"__locale_t\000"
 3242      63616C65 
 3242      5F7400
 3243              	.LASF58:
 3244 0850 5F736565 		.ascii	"_seek\000"
 3244      6B00
 3245              	.LASF72:
 3246 0856 5F737464 		.ascii	"_stderr\000"
 3246      65727200 
 3247              	.LASF119:
 3248 085e 5F6E6D61 		.ascii	"_nmalloc\000"
 3248      6C6C6F63 
 3248      00
 3249              	.LASF60:
 3250 0867 5F756275 		.ascii	"_ubuf\000"
 3250      6600
 3251              		.ident	"GCC: (15:9-2019-q4-0ubuntu1) 9.2.1 20191025 (release) [ARM/arm-9-branch revision 277599]"
ARM GAS  /tmp/ccIOiVfl.s 			page 65


DEFINED SYMBOLS
                            *ABS*:0000000000000000 _unit.c
     /tmp/ccIOiVfl.s:17     .text:0000000000000000 $t
     /tmp/ccIOiVfl.s:25     .text:0000000000000000 _hook_process
     /tmp/ccIOiVfl.s:51     .text:0000000000000002 _hook_suspend
     /tmp/ccIOiVfl.s:70     .text:0000000000000004 _hook_param
     /tmp/ccIOiVfl.s:92     .text:0000000000000006 _hook_resume
     /tmp/ccIOiVfl.s:109    .text:0000000000000008 _hook_init
     /tmp/ccIOiVfl.s:131    .text:000000000000000a _entry
     /tmp/ccIOiVfl.s:224    .text:0000000000000048 $d
     /tmp/ccIOiVfl.s:235    .hooks:0000000000000000 s_hook_table
     /tmp/ccIOiVfl.s:240    .hooks:000000000000000b $d

UNDEFINED SYMBOLS
_bss_start
_bss_end
__init_array_start
__init_array_end
