
/workspace/nutekt-digital/tapewarble/build/tape.elf:     file format elf32-littlearm


Disassembly of section .text:

20017840 <_text_start>:
  (void)main_xn;
  (void)main_yn;
  (void)sub_xn;
  (void)sub_yn;
  (void)frames;
}
20017840:	4770      	bx	lr

20017842 <_hook_suspend>:

__attribute__((weak))
void _hook_suspend(void)
{

}
20017842:	4770      	bx	lr
__attribute__((weak))
void _hook_param(uint8_t index, int32_t value)
{
  (void)index;
  (void)value;
}
20017844:	4770      	bx	lr

20017846 <_hook_resume>:
20017846:	4770      	bx	lr
}
20017848:	4770      	bx	lr

2001784a <_entry>:
  uint8_t * __restrict bss_p = (uint8_t *)&_bss_start;
2001784a:	4b0f      	ldr	r3, [pc, #60]	; (20017888 <_entry+0x3e>)
  for (; bss_p != bss_e;)
2001784c:	4a0f      	ldr	r2, [pc, #60]	; (2001788c <_entry+0x42>)
{
2001784e:	b573      	push	{r0, r1, r4, r5, r6, lr}
    *(bss_p++) = 0;
20017850:	2400      	movs	r4, #0
  for (; bss_p != bss_e;)
20017852:	4293      	cmp	r3, r2
20017854:	d10a      	bne.n	2001786c <_entry+0x22>
  const size_t count = __init_array_end - __init_array_start;
20017856:	4d0e      	ldr	r5, [pc, #56]	; (20017890 <_entry+0x46>)
20017858:	4c0e      	ldr	r4, [pc, #56]	; (20017894 <_entry+0x4a>)
2001785a:	1b64      	subs	r4, r4, r5
2001785c:	10a4      	asrs	r4, r4, #2
  for (size_t i = 0; i<count; ++i) {
2001785e:	2600      	movs	r6, #0
20017860:	42a6      	cmp	r6, r4
20017862:	d106      	bne.n	20017872 <_entry+0x28>
  _hook_init(platform, api);
20017864:	f000 f818 	bl	20017898 <_hook_init>
}
20017868:	b002      	add	sp, #8
2001786a:	bd70      	pop	{r4, r5, r6, pc}
    *(bss_p++) = 0;
2001786c:	f803 4b01 	strb.w	r4, [r3], #1
20017870:	e7ef      	b.n	20017852 <_entry+0x8>
    __init_fptr init_p = (__init_fptr)__init_array_start[i];
20017872:	f855 3b04 	ldr.w	r3, [r5], #4
    if (init_p != NULL)
20017876:	b123      	cbz	r3, 20017882 <_entry+0x38>
20017878:	e9cd 0100 	strd	r0, r1, [sp]
      init_p();
2001787c:	4798      	blx	r3
2001787e:	e9dd 0100 	ldrd	r0, r1, [sp]
  for (size_t i = 0; i<count; ++i) {
20017882:	3601      	adds	r6, #1
20017884:	e7ec      	b.n	20017860 <_entry+0x16>
20017886:	bf00      	nop
20017888:	200189f0 	.word	0x200189f0
2001788c:	200189f4 	.word	0x200189f4
20017890:	20017840 	.word	0x20017840
20017894:	20017840 	.word	0x20017840

20017898 <_hook_init>:
static float mod_rate = 1.0f;  // 1 Hz at middle position

// called upon instantiation of effect, use for initializations 
// see inc/userprg.h for possible values of platform and api
void MODFX_INIT(uint32_t platform, uint32_t api) {
}
20017898:	4770      	bx	lr

2001789a <_Z3lfof>:

float lfo(float phase) {
    return sinf(phase * 2 * M_PI);
2001789a:	ee30 0a00 	vadd.f32	s0, s0, s0
2001789e:	eddf 7a03 	vldr	s15, [pc, #12]	; 200178ac <_Z3lfof+0x12>
200178a2:	ee20 0a27 	vmul.f32	s0, s0, s15
200178a6:	f000 b867 	b.w	20017978 <sinf>
200178aa:	bf00      	nop
200178ac:	40490fdb 	.word	0x40490fdb

200178b0 <_hook_param>:
}

void MODFX_PARAM(uint8_t index, int32_t value) {
    const float param = value / 100.0f; // Range: 0.0 to 1.0

    switch (index) {
200178b0:	2801      	cmp	r0, #1
void MODFX_PARAM(uint8_t index, int32_t value) {
200178b2:	ee07 1a90 	vmov	s15, r1
    switch (index) {
200178b6:	d108      	bne.n	200178ca <_hook_param+0x1a>
    const float param = value / 100.0f; // Range: 0.0 to 1.0
200178b8:	eef8 7ae7 	vcvt.f32.s32	s15, s15
200178bc:	eddf 6a03 	vldr	s13, [pc, #12]	; 200178cc <_hook_param+0x1c>
        case k_user_modfx_param_time: // Time knob for modulation rate
            mod_rate = param; 
            break;
        case k_user_modfx_param_depth: // Depth knob for modulation depth
            mod_depth = param; // Quarter octave at max
200178c0:	4b03      	ldr	r3, [pc, #12]	; (200178d0 <_hook_param+0x20>)
    const float param = value / 100.0f; // Range: 0.0 to 1.0
200178c2:	ee87 7aa6 	vdiv.f32	s14, s15, s13
            mod_depth = param; // Quarter octave at max
200178c6:	ed83 7a00 	vstr	s14, [r3]
            break;
        default:
            break;
    }
}
200178ca:	4770      	bx	lr
200178cc:	42c80000 	.word	0x42c80000
200178d0:	200189e8 	.word	0x200189e8

200178d4 <_Z17linearInterpolatefff>:

// Linear interpolation function
float linearInterpolate(float a, float b, float fraction) {
    return a + fraction * (b - a);
200178d4:	ee70 0ac0 	vsub.f32	s1, s1, s0
}
200178d8:	eea0 0a81 	vfma.f32	s0, s1, s2
200178dc:	4770      	bx	lr

200178de <_hook_process>:

void MODFX_PROCESS(const float *main_xn, float *main_yn,
                   const float *sub_xn,  float *sub_yn,
                   uint32_t frames) {
200178de:	b5f0      	push	{r4, r5, r6, r7, lr}

    static float playhead = 0; // Position in the input buffer
    float rate = 1.0 + mod_depth; // Adjust this for the desired pitch shift
200178e0:	4c23      	ldr	r4, [pc, #140]	; (20017970 <_hook_process+0x92>)
200178e2:	4e24      	ldr	r6, [pc, #144]	; (20017974 <_hook_process+0x96>)
200178e4:	ed94 6a00 	vldr	s12, [r4]
                   uint32_t frames) {
200178e8:	9f05      	ldr	r7, [sp, #20]
    float rate = 1.0 + mod_depth; // Adjust this for the desired pitch shift
200178ea:	eef7 7a00 	vmov.f32	s15, #112	; 0x3f800000  1.0
200178ee:	ee36 6a27 	vadd.f32	s12, s12, s15

    for (uint32_t i = 0; i < frames; i++) {
200178f2:	edd6 7a00 	vldr	s15, [r6]
200178f6:	eb01 0c87 	add.w	ip, r1, r7, lsl #2
200178fa:	458c      	cmp	ip, r1
200178fc:	d035      	beq.n	2001796a <_hook_process+0x8c>
        // Calculate the indices of the two samples we are interpolating between
        int sampleIndex1 = (int)playhead;
200178fe:	eebd 7ae7 	vcvt.s32.f32	s14, s15
20017902:	ee17 5a10 	vmov	r5, s14
        int sampleIndex2 = sampleIndex1 + 1;
20017906:	1c6c      	adds	r4, r5, #1
        if (sampleIndex2 >= frames) sampleIndex2 -= frames; // Wrap around if needed
20017908:	42bc      	cmp	r4, r7
2001790a:	bf28      	it	cs
2001790c:	1be4      	subcs	r4, r4, r7

        // Calculate the fractional part of the playhead position
        float fraction = playhead - (float)sampleIndex1;

        // Perform linear interpolation for main and sub channels
        main_yn[i] = linearInterpolate(main_xn[sampleIndex1], main_xn[sampleIndex2], fraction);
2001790e:	eb00 0e85 	add.w	lr, r0, r5, lsl #2
        float fraction = playhead - (float)sampleIndex1;
20017912:	eef8 6ac7 	vcvt.f32.s32	s13, s14
        main_yn[i] = linearInterpolate(main_xn[sampleIndex1], main_xn[sampleIndex2], fraction);
20017916:	ed9e 7a00 	vldr	s14, [lr]
2001791a:	eb00 0e84 	add.w	lr, r0, r4, lsl #2
    return a + fraction * (b - a);
2001791e:	edde 5a00 	vldr	s11, [lr]
        float fraction = playhead - (float)sampleIndex1;
20017922:	ee77 6ae6 	vsub.f32	s13, s15, s13
    return a + fraction * (b - a);
20017926:	ee75 5ac7 	vsub.f32	s11, s11, s14
        sub_yn[i] = linearInterpolate(sub_xn[sampleIndex1], sub_xn[sampleIndex2], fraction);
2001792a:	eb02 0585 	add.w	r5, r2, r5, lsl #2
    return a + fraction * (b - a);
2001792e:	eea6 7aa5 	vfma.f32	s14, s13, s11
        sub_yn[i] = linearInterpolate(sub_xn[sampleIndex1], sub_xn[sampleIndex2], fraction);
20017932:	eb02 0484 	add.w	r4, r2, r4, lsl #2

        // Move the playhead
        playhead += rate;
20017936:	ee77 7a86 	vadd.f32	s15, s15, s12
        main_yn[i] = linearInterpolate(main_xn[sampleIndex1], main_xn[sampleIndex2], fraction);
2001793a:	eca1 7a01 	vstmia	r1!, {s14}
        sub_yn[i] = linearInterpolate(sub_xn[sampleIndex1], sub_xn[sampleIndex2], fraction);
2001793e:	ed95 7a00 	vldr	s14, [r5]
    return a + fraction * (b - a);
20017942:	edd4 5a00 	vldr	s11, [r4]
20017946:	ee75 5ac7 	vsub.f32	s11, s11, s14
2001794a:	eea6 7aa5 	vfma.f32	s14, s13, s11
        sub_yn[i] = linearInterpolate(sub_xn[sampleIndex1], sub_xn[sampleIndex2], fraction);
2001794e:	eca3 7a01 	vstmia	r3!, {s14}
        if (playhead >= frames) playhead -= frames; // Loop back if end of buffer is reached
20017952:	ee07 7a10 	vmov	s14, r7
20017956:	eeb8 7a47 	vcvt.f32.u32	s14, s14
2001795a:	eef4 7ac7 	vcmpe.f32	s15, s14
2001795e:	eef1 fa10 	vmrs	APSR_nzcv, fpscr
20017962:	dbca      	blt.n	200178fa <_hook_process+0x1c>
20017964:	ee77 7ac7 	vsub.f32	s15, s15, s14
    for (uint32_t i = 0; i < frames; i++) {
20017968:	e7c7      	b.n	200178fa <_hook_process+0x1c>
2001796a:	edc6 7a00 	vstr	s15, [r6]
    }
}
2001796e:	bdf0      	pop	{r4, r5, r6, r7, pc}
20017970:	200189e8 	.word	0x200189e8
20017974:	200189f0 	.word	0x200189f0

20017978 <sinf>:
20017978:	b500      	push	{lr}
2001797a:	ee10 3a10 	vmov	r3, s0
2001797e:	4a21      	ldr	r2, [pc, #132]	; (20017a04 <sinf+0x8c>)
20017980:	f023 4300 	bic.w	r3, r3, #2147483648	; 0x80000000
20017984:	4293      	cmp	r3, r2
20017986:	b083      	sub	sp, #12
20017988:	dd1a      	ble.n	200179c0 <sinf+0x48>
2001798a:	f1b3 4fff 	cmp.w	r3, #2139095040	; 0x7f800000
2001798e:	db04      	blt.n	2001799a <sinf+0x22>
20017990:	ee30 0a40 	vsub.f32	s0, s0, s0
20017994:	b003      	add	sp, #12
20017996:	f85d fb04 	ldr.w	pc, [sp], #4
2001799a:	4668      	mov	r0, sp
2001799c:	f000 f836 	bl	20017a0c <__ieee754_rem_pio2f>
200179a0:	f000 0003 	and.w	r0, r0, #3
200179a4:	2801      	cmp	r0, #1
200179a6:	d013      	beq.n	200179d0 <sinf+0x58>
200179a8:	2802      	cmp	r0, #2
200179aa:	d020      	beq.n	200179ee <sinf+0x76>
200179ac:	b1b8      	cbz	r0, 200179de <sinf+0x66>
200179ae:	eddd 0a01 	vldr	s1, [sp, #4]
200179b2:	ed9d 0a00 	vldr	s0, [sp]
200179b6:	f000 f975 	bl	20017ca4 <__kernel_cosf>
200179ba:	eeb1 0a40 	vneg.f32	s0, s0
200179be:	e7e9      	b.n	20017994 <sinf+0x1c>
200179c0:	2000      	movs	r0, #0
200179c2:	eddf 0a11 	vldr	s1, [pc, #68]	; 20017a08 <sinf+0x90>
200179c6:	f000 fd21 	bl	2001840c <__kernel_sinf>
200179ca:	b003      	add	sp, #12
200179cc:	f85d fb04 	ldr.w	pc, [sp], #4
200179d0:	eddd 0a01 	vldr	s1, [sp, #4]
200179d4:	ed9d 0a00 	vldr	s0, [sp]
200179d8:	f000 f964 	bl	20017ca4 <__kernel_cosf>
200179dc:	e7da      	b.n	20017994 <sinf+0x1c>
200179de:	2001      	movs	r0, #1
200179e0:	eddd 0a01 	vldr	s1, [sp, #4]
200179e4:	ed9d 0a00 	vldr	s0, [sp]
200179e8:	f000 fd10 	bl	2001840c <__kernel_sinf>
200179ec:	e7d2      	b.n	20017994 <sinf+0x1c>
200179ee:	2001      	movs	r0, #1
200179f0:	eddd 0a01 	vldr	s1, [sp, #4]
200179f4:	ed9d 0a00 	vldr	s0, [sp]
200179f8:	f000 fd08 	bl	2001840c <__kernel_sinf>
200179fc:	eeb1 0a40 	vneg.f32	s0, s0
20017a00:	e7c8      	b.n	20017994 <sinf+0x1c>
20017a02:	bf00      	nop
20017a04:	3f490fd8 	.word	0x3f490fd8
20017a08:	00000000 	.word	0x00000000

20017a0c <__ieee754_rem_pio2f>:
20017a0c:	b570      	push	{r4, r5, r6, lr}
20017a0e:	ee10 3a10 	vmov	r3, s0
20017a12:	4a96      	ldr	r2, [pc, #600]	; (20017c6c <__ieee754_rem_pio2f+0x260>)
20017a14:	f023 4400 	bic.w	r4, r3, #2147483648	; 0x80000000
20017a18:	4294      	cmp	r4, r2
20017a1a:	b086      	sub	sp, #24
20017a1c:	4605      	mov	r5, r0
20017a1e:	dd68      	ble.n	20017af2 <__ieee754_rem_pio2f+0xe6>
20017a20:	4a93      	ldr	r2, [pc, #588]	; (20017c70 <__ieee754_rem_pio2f+0x264>)
20017a22:	4294      	cmp	r4, r2
20017a24:	ee10 6a10 	vmov	r6, s0
20017a28:	dc1a      	bgt.n	20017a60 <__ieee754_rem_pio2f+0x54>
20017a2a:	2b00      	cmp	r3, #0
20017a2c:	f024 040f 	bic.w	r4, r4, #15
20017a30:	eddf 7a90 	vldr	s15, [pc, #576]	; 20017c74 <__ieee754_rem_pio2f+0x268>
20017a34:	4a90      	ldr	r2, [pc, #576]	; (20017c78 <__ieee754_rem_pio2f+0x26c>)
20017a36:	f340 80f2 	ble.w	20017c1e <__ieee754_rem_pio2f+0x212>
20017a3a:	4294      	cmp	r4, r2
20017a3c:	ee70 7a67 	vsub.f32	s15, s0, s15
20017a40:	d066      	beq.n	20017b10 <__ieee754_rem_pio2f+0x104>
20017a42:	ed9f 7a8e 	vldr	s14, [pc, #568]	; 20017c7c <__ieee754_rem_pio2f+0x270>
20017a46:	ee77 6ac7 	vsub.f32	s13, s15, s14
20017a4a:	2001      	movs	r0, #1
20017a4c:	ee77 7ae6 	vsub.f32	s15, s15, s13
20017a50:	edc5 6a00 	vstr	s13, [r5]
20017a54:	ee77 7ac7 	vsub.f32	s15, s15, s14
20017a58:	edc5 7a01 	vstr	s15, [r5, #4]
20017a5c:	b006      	add	sp, #24
20017a5e:	bd70      	pop	{r4, r5, r6, pc}
20017a60:	4a87      	ldr	r2, [pc, #540]	; (20017c80 <__ieee754_rem_pio2f+0x274>)
20017a62:	4294      	cmp	r4, r2
20017a64:	dd67      	ble.n	20017b36 <__ieee754_rem_pio2f+0x12a>
20017a66:	f1b4 4fff 	cmp.w	r4, #2139095040	; 0x7f800000
20017a6a:	da49      	bge.n	20017b00 <__ieee754_rem_pio2f+0xf4>
20017a6c:	15e2      	asrs	r2, r4, #23
20017a6e:	3a86      	subs	r2, #134	; 0x86
20017a70:	eba4 53c2 	sub.w	r3, r4, r2, lsl #23
20017a74:	ee07 3a90 	vmov	s15, r3
20017a78:	eebd 7ae7 	vcvt.s32.f32	s14, s15
20017a7c:	eddf 6a81 	vldr	s13, [pc, #516]	; 20017c84 <__ieee754_rem_pio2f+0x278>
20017a80:	eeb8 7ac7 	vcvt.f32.s32	s14, s14
20017a84:	ee77 7ac7 	vsub.f32	s15, s15, s14
20017a88:	ed8d 7a03 	vstr	s14, [sp, #12]
20017a8c:	ee67 7aa6 	vmul.f32	s15, s15, s13
20017a90:	eebd 7ae7 	vcvt.s32.f32	s14, s15
20017a94:	eeb8 7ac7 	vcvt.f32.s32	s14, s14
20017a98:	ee77 7ac7 	vsub.f32	s15, s15, s14
20017a9c:	ed8d 7a04 	vstr	s14, [sp, #16]
20017aa0:	ee67 7aa6 	vmul.f32	s15, s15, s13
20017aa4:	eef5 7a40 	vcmp.f32	s15, #0.0
20017aa8:	eef1 fa10 	vmrs	APSR_nzcv, fpscr
20017aac:	edcd 7a05 	vstr	s15, [sp, #20]
20017ab0:	f040 80a2 	bne.w	20017bf8 <__ieee754_rem_pio2f+0x1ec>
20017ab4:	eeb5 7a40 	vcmp.f32	s14, #0.0
20017ab8:	eef1 fa10 	vmrs	APSR_nzcv, fpscr
20017abc:	bf14      	ite	ne
20017abe:	2302      	movne	r3, #2
20017ac0:	2301      	moveq	r3, #1
20017ac2:	4971      	ldr	r1, [pc, #452]	; (20017c88 <__ieee754_rem_pio2f+0x27c>)
20017ac4:	9101      	str	r1, [sp, #4]
20017ac6:	2102      	movs	r1, #2
20017ac8:	9100      	str	r1, [sp, #0]
20017aca:	a803      	add	r0, sp, #12
20017acc:	4629      	mov	r1, r5
20017ace:	f000 f96b 	bl	20017da8 <__kernel_rem_pio2f>
20017ad2:	2e00      	cmp	r6, #0
20017ad4:	dac2      	bge.n	20017a5c <__ieee754_rem_pio2f+0x50>
20017ad6:	ed95 7a00 	vldr	s14, [r5]
20017ada:	edd5 7a01 	vldr	s15, [r5, #4]
20017ade:	eeb1 7a47 	vneg.f32	s14, s14
20017ae2:	eef1 7a67 	vneg.f32	s15, s15
20017ae6:	4240      	negs	r0, r0
20017ae8:	ed85 7a00 	vstr	s14, [r5]
20017aec:	edc5 7a01 	vstr	s15, [r5, #4]
20017af0:	e7b4      	b.n	20017a5c <__ieee754_rem_pio2f+0x50>
20017af2:	2200      	movs	r2, #0
20017af4:	ed85 0a00 	vstr	s0, [r5]
20017af8:	6042      	str	r2, [r0, #4]
20017afa:	2000      	movs	r0, #0
20017afc:	b006      	add	sp, #24
20017afe:	bd70      	pop	{r4, r5, r6, pc}
20017b00:	ee70 7a40 	vsub.f32	s15, s0, s0
20017b04:	2000      	movs	r0, #0
20017b06:	edc5 7a01 	vstr	s15, [r5, #4]
20017b0a:	edc5 7a00 	vstr	s15, [r5]
20017b0e:	e7a5      	b.n	20017a5c <__ieee754_rem_pio2f+0x50>
20017b10:	eddf 6a5e 	vldr	s13, [pc, #376]	; 20017c8c <__ieee754_rem_pio2f+0x280>
20017b14:	ed9f 7a5e 	vldr	s14, [pc, #376]	; 20017c90 <__ieee754_rem_pio2f+0x284>
20017b18:	ee77 7ae6 	vsub.f32	s15, s15, s13
20017b1c:	2001      	movs	r0, #1
20017b1e:	ee77 6ac7 	vsub.f32	s13, s15, s14
20017b22:	ee77 7ae6 	vsub.f32	s15, s15, s13
20017b26:	edc5 6a00 	vstr	s13, [r5]
20017b2a:	ee77 7ac7 	vsub.f32	s15, s15, s14
20017b2e:	edc5 7a01 	vstr	s15, [r5, #4]
20017b32:	b006      	add	sp, #24
20017b34:	bd70      	pop	{r4, r5, r6, pc}
20017b36:	f000 fcb1 	bl	2001849c <fabsf>
20017b3a:	eddf 6a56 	vldr	s13, [pc, #344]	; 20017c94 <__ieee754_rem_pio2f+0x288>
20017b3e:	eddf 5a4d 	vldr	s11, [pc, #308]	; 20017c74 <__ieee754_rem_pio2f+0x268>
20017b42:	ed9f 7a4e 	vldr	s14, [pc, #312]	; 20017c7c <__ieee754_rem_pio2f+0x270>
20017b46:	eef6 7a00 	vmov.f32	s15, #96	; 0x3f000000  0.5
20017b4a:	eee0 7a26 	vfma.f32	s15, s0, s13
20017b4e:	eefd 7ae7 	vcvt.s32.f32	s15, s15
20017b52:	ee17 0a90 	vmov	r0, s15
20017b56:	eef8 6ae7 	vcvt.f32.s32	s13, s15
20017b5a:	281f      	cmp	r0, #31
20017b5c:	eeb1 6a66 	vneg.f32	s12, s13
20017b60:	eea6 0a25 	vfma.f32	s0, s12, s11
20017b64:	ee66 7a87 	vmul.f32	s15, s13, s14
20017b68:	dc1e      	bgt.n	20017ba8 <__ieee754_rem_pio2f+0x19c>
20017b6a:	1e42      	subs	r2, r0, #1
20017b6c:	4b4a      	ldr	r3, [pc, #296]	; (20017c98 <__ieee754_rem_pio2f+0x28c>)
20017b6e:	f853 3022 	ldr.w	r3, [r3, r2, lsl #2]
20017b72:	f024 02ff 	bic.w	r2, r4, #255	; 0xff
20017b76:	429a      	cmp	r2, r3
20017b78:	ee30 7a67 	vsub.f32	s14, s0, s15
20017b7c:	d016      	beq.n	20017bac <__ieee754_rem_pio2f+0x1a0>
20017b7e:	ed85 7a00 	vstr	s14, [r5]
20017b82:	ee30 0a47 	vsub.f32	s0, s0, s14
20017b86:	2e00      	cmp	r6, #0
20017b88:	ee30 0a67 	vsub.f32	s0, s0, s15
20017b8c:	ed85 0a01 	vstr	s0, [r5, #4]
20017b90:	f6bf af64 	bge.w	20017a5c <__ieee754_rem_pio2f+0x50>
20017b94:	eeb1 7a47 	vneg.f32	s14, s14
20017b98:	eeb1 0a40 	vneg.f32	s0, s0
20017b9c:	ed85 7a00 	vstr	s14, [r5]
20017ba0:	ed85 0a01 	vstr	s0, [r5, #4]
20017ba4:	4240      	negs	r0, r0
20017ba6:	e759      	b.n	20017a5c <__ieee754_rem_pio2f+0x50>
20017ba8:	ee30 7a67 	vsub.f32	s14, s0, s15
20017bac:	ee17 3a10 	vmov	r3, s14
20017bb0:	15e4      	asrs	r4, r4, #23
20017bb2:	f3c3 53c7 	ubfx	r3, r3, #23, #8
20017bb6:	1ae3      	subs	r3, r4, r3
20017bb8:	2b08      	cmp	r3, #8
20017bba:	dde0      	ble.n	20017b7e <__ieee754_rem_pio2f+0x172>
20017bbc:	eddf 7a33 	vldr	s15, [pc, #204]	; 20017c8c <__ieee754_rem_pio2f+0x280>
20017bc0:	ed9f 7a33 	vldr	s14, [pc, #204]	; 20017c90 <__ieee754_rem_pio2f+0x284>
20017bc4:	eef0 5a40 	vmov.f32	s11, s0
20017bc8:	eee6 5a27 	vfma.f32	s11, s12, s15
20017bcc:	ee30 0a65 	vsub.f32	s0, s0, s11
20017bd0:	eea6 0a27 	vfma.f32	s0, s12, s15
20017bd4:	eef0 7a40 	vmov.f32	s15, s0
20017bd8:	eed6 7a87 	vfnms.f32	s15, s13, s14
20017bdc:	ee35 7ae7 	vsub.f32	s14, s11, s15
20017be0:	ee17 3a10 	vmov	r3, s14
20017be4:	f3c3 53c7 	ubfx	r3, r3, #23, #8
20017be8:	1ae4      	subs	r4, r4, r3
20017bea:	2c19      	cmp	r4, #25
20017bec:	dc06      	bgt.n	20017bfc <__ieee754_rem_pio2f+0x1f0>
20017bee:	ed85 7a00 	vstr	s14, [r5]
20017bf2:	eeb0 0a65 	vmov.f32	s0, s11
20017bf6:	e7c4      	b.n	20017b82 <__ieee754_rem_pio2f+0x176>
20017bf8:	2303      	movs	r3, #3
20017bfa:	e762      	b.n	20017ac2 <__ieee754_rem_pio2f+0xb6>
20017bfc:	ed9f 7a27 	vldr	s14, [pc, #156]	; 20017c9c <__ieee754_rem_pio2f+0x290>
20017c00:	ed9f 5a27 	vldr	s10, [pc, #156]	; 20017ca0 <__ieee754_rem_pio2f+0x294>
20017c04:	eeb0 0a65 	vmov.f32	s0, s11
20017c08:	eea6 0a07 	vfma.f32	s0, s12, s14
20017c0c:	ee75 7ac0 	vsub.f32	s15, s11, s0
20017c10:	eee6 7a07 	vfma.f32	s15, s12, s14
20017c14:	eed6 7a85 	vfnms.f32	s15, s13, s10
20017c18:	ee30 7a67 	vsub.f32	s14, s0, s15
20017c1c:	e7af      	b.n	20017b7e <__ieee754_rem_pio2f+0x172>
20017c1e:	4294      	cmp	r4, r2
20017c20:	ee70 7a27 	vadd.f32	s15, s0, s15
20017c24:	d00e      	beq.n	20017c44 <__ieee754_rem_pio2f+0x238>
20017c26:	ed9f 7a15 	vldr	s14, [pc, #84]	; 20017c7c <__ieee754_rem_pio2f+0x270>
20017c2a:	ee77 6a87 	vadd.f32	s13, s15, s14
20017c2e:	f04f 30ff 	mov.w	r0, #4294967295	; 0xffffffff
20017c32:	ee77 7ae6 	vsub.f32	s15, s15, s13
20017c36:	edc5 6a00 	vstr	s13, [r5]
20017c3a:	ee77 7a87 	vadd.f32	s15, s15, s14
20017c3e:	edc5 7a01 	vstr	s15, [r5, #4]
20017c42:	e70b      	b.n	20017a5c <__ieee754_rem_pio2f+0x50>
20017c44:	eddf 6a11 	vldr	s13, [pc, #68]	; 20017c8c <__ieee754_rem_pio2f+0x280>
20017c48:	ed9f 7a11 	vldr	s14, [pc, #68]	; 20017c90 <__ieee754_rem_pio2f+0x284>
20017c4c:	ee77 7aa6 	vadd.f32	s15, s15, s13
20017c50:	f04f 30ff 	mov.w	r0, #4294967295	; 0xffffffff
20017c54:	ee77 6a87 	vadd.f32	s13, s15, s14
20017c58:	ee77 7ae6 	vsub.f32	s15, s15, s13
20017c5c:	edc5 6a00 	vstr	s13, [r5]
20017c60:	ee77 7a87 	vadd.f32	s15, s15, s14
20017c64:	edc5 7a01 	vstr	s15, [r5, #4]
20017c68:	e6f8      	b.n	20017a5c <__ieee754_rem_pio2f+0x50>
20017c6a:	bf00      	nop
20017c6c:	3f490fd8 	.word	0x3f490fd8
20017c70:	4016cbe3 	.word	0x4016cbe3
20017c74:	3fc90f80 	.word	0x3fc90f80
20017c78:	3fc90fd0 	.word	0x3fc90fd0
20017c7c:	37354443 	.word	0x37354443
20017c80:	43490f80 	.word	0x43490f80
20017c84:	43800000 	.word	0x43800000
20017c88:	20018698 	.word	0x20018698
20017c8c:	37354400 	.word	0x37354400
20017c90:	2e85a308 	.word	0x2e85a308
20017c94:	3f22f984 	.word	0x3f22f984
20017c98:	20018618 	.word	0x20018618
20017c9c:	2e85a300 	.word	0x2e85a300
20017ca0:	248d3132 	.word	0x248d3132

20017ca4 <__kernel_cosf>:
20017ca4:	ee10 3a10 	vmov	r3, s0
20017ca8:	f023 4300 	bic.w	r3, r3, #2147483648	; 0x80000000
20017cac:	f1b3 5f48 	cmp.w	r3, #838860800	; 0x32000000
20017cb0:	da2c      	bge.n	20017d0c <__kernel_cosf+0x68>
20017cb2:	eefd 7ac0 	vcvt.s32.f32	s15, s0
20017cb6:	ee17 3a90 	vmov	r3, s15
20017cba:	2b00      	cmp	r3, #0
20017cbc:	d060      	beq.n	20017d80 <__kernel_cosf+0xdc>
20017cbe:	ee20 7a00 	vmul.f32	s14, s0, s0
20017cc2:	eddf 4a31 	vldr	s9, [pc, #196]	; 20017d88 <__kernel_cosf+0xe4>
20017cc6:	ed9f 5a31 	vldr	s10, [pc, #196]	; 20017d8c <__kernel_cosf+0xe8>
20017cca:	eddf 5a31 	vldr	s11, [pc, #196]	; 20017d90 <__kernel_cosf+0xec>
20017cce:	ed9f 6a31 	vldr	s12, [pc, #196]	; 20017d94 <__kernel_cosf+0xf0>
20017cd2:	eddf 7a31 	vldr	s15, [pc, #196]	; 20017d98 <__kernel_cosf+0xf4>
20017cd6:	eddf 6a31 	vldr	s13, [pc, #196]	; 20017d9c <__kernel_cosf+0xf8>
20017cda:	eea7 5a24 	vfma.f32	s10, s14, s9
20017cde:	eee7 5a05 	vfma.f32	s11, s14, s10
20017ce2:	eea7 6a25 	vfma.f32	s12, s14, s11
20017ce6:	eee7 7a06 	vfma.f32	s15, s14, s12
20017cea:	eee7 6a27 	vfma.f32	s13, s14, s15
20017cee:	ee66 6a87 	vmul.f32	s13, s13, s14
20017cf2:	ee60 0ac0 	vnmul.f32	s1, s1, s0
20017cf6:	eeb6 6a00 	vmov.f32	s12, #96	; 0x3f000000  0.5
20017cfa:	eee7 0a26 	vfma.f32	s1, s14, s13
20017cfe:	eef7 7a00 	vmov.f32	s15, #112	; 0x3f800000  1.0
20017d02:	eed7 0a06 	vfnms.f32	s1, s14, s12
20017d06:	ee37 0ae0 	vsub.f32	s0, s15, s1
20017d0a:	4770      	bx	lr
20017d0c:	ee20 7a00 	vmul.f32	s14, s0, s0
20017d10:	eddf 4a1d 	vldr	s9, [pc, #116]	; 20017d88 <__kernel_cosf+0xe4>
20017d14:	ed9f 5a1d 	vldr	s10, [pc, #116]	; 20017d8c <__kernel_cosf+0xe8>
20017d18:	eddf 5a1d 	vldr	s11, [pc, #116]	; 20017d90 <__kernel_cosf+0xec>
20017d1c:	ed9f 6a1d 	vldr	s12, [pc, #116]	; 20017d94 <__kernel_cosf+0xf0>
20017d20:	eddf 7a1d 	vldr	s15, [pc, #116]	; 20017d98 <__kernel_cosf+0xf4>
20017d24:	eddf 6a1d 	vldr	s13, [pc, #116]	; 20017d9c <__kernel_cosf+0xf8>
20017d28:	4a1d      	ldr	r2, [pc, #116]	; (20017da0 <__kernel_cosf+0xfc>)
20017d2a:	eea7 5a24 	vfma.f32	s10, s14, s9
20017d2e:	4293      	cmp	r3, r2
20017d30:	eee5 5a07 	vfma.f32	s11, s10, s14
20017d34:	eea5 6a87 	vfma.f32	s12, s11, s14
20017d38:	eee6 7a07 	vfma.f32	s15, s12, s14
20017d3c:	eee7 6a87 	vfma.f32	s13, s15, s14
20017d40:	ee66 6a87 	vmul.f32	s13, s13, s14
20017d44:	ddd5      	ble.n	20017cf2 <__kernel_cosf+0x4e>
20017d46:	4a17      	ldr	r2, [pc, #92]	; (20017da4 <__kernel_cosf+0x100>)
20017d48:	4293      	cmp	r3, r2
20017d4a:	dc14      	bgt.n	20017d76 <__kernel_cosf+0xd2>
20017d4c:	f103 437f 	add.w	r3, r3, #4278190080	; 0xff000000
20017d50:	ee07 3a90 	vmov	s15, r3
20017d54:	eeb7 6a00 	vmov.f32	s12, #112	; 0x3f800000  1.0
20017d58:	ee36 6a67 	vsub.f32	s12, s12, s15
20017d5c:	ee60 0ac0 	vnmul.f32	s1, s1, s0
20017d60:	eef6 5a00 	vmov.f32	s11, #96	; 0x3f000000  0.5
20017d64:	eee7 0a26 	vfma.f32	s1, s14, s13
20017d68:	eed7 7a25 	vfnms.f32	s15, s14, s11
20017d6c:	ee77 7ae0 	vsub.f32	s15, s15, s1
20017d70:	ee36 0a67 	vsub.f32	s0, s12, s15
20017d74:	4770      	bx	lr
20017d76:	eeb6 6a07 	vmov.f32	s12, #103	; 0x3f380000  0.7187500
20017d7a:	eef5 7a02 	vmov.f32	s15, #82	; 0x3e900000  0.2812500
20017d7e:	e7ed      	b.n	20017d5c <__kernel_cosf+0xb8>
20017d80:	eeb7 0a00 	vmov.f32	s0, #112	; 0x3f800000  1.0
20017d84:	4770      	bx	lr
20017d86:	bf00      	nop
20017d88:	ad47d74e 	.word	0xad47d74e
20017d8c:	310f74f6 	.word	0x310f74f6
20017d90:	b493f27c 	.word	0xb493f27c
20017d94:	37d00d01 	.word	0x37d00d01
20017d98:	bab60b61 	.word	0xbab60b61
20017d9c:	3d2aaaab 	.word	0x3d2aaaab
20017da0:	3e999999 	.word	0x3e999999
20017da4:	3f480000 	.word	0x3f480000

20017da8 <__kernel_rem_pio2f>:
20017da8:	e92d 4ff0 	stmdb	sp!, {r4, r5, r6, r7, r8, r9, sl, fp, lr}
20017dac:	ed2d 8b04 	vpush	{d8-d9}
20017db0:	b0db      	sub	sp, #364	; 0x16c
20017db2:	4cd6      	ldr	r4, [pc, #856]	; (2001810c <__kernel_rem_pio2f+0x364>)
20017db4:	9d68      	ldr	r5, [sp, #416]	; 0x1a0
20017db6:	9107      	str	r1, [sp, #28]
20017db8:	1d11      	adds	r1, r2, #4
20017dba:	f854 5025 	ldr.w	r5, [r4, r5, lsl #2]
20017dbe:	9304      	str	r3, [sp, #16]
20017dc0:	9209      	str	r2, [sp, #36]	; 0x24
20017dc2:	4681      	mov	r9, r0
20017dc4:	f103 38ff 	add.w	r8, r3, #4294967295	; 0xffffffff
20017dc8:	f2c0 8257 	blt.w	2001827a <__kernel_rem_pio2f+0x4d2>
20017dcc:	1ed3      	subs	r3, r2, #3
20017dce:	bf44      	itt	mi
20017dd0:	4613      	movmi	r3, r2
20017dd2:	3304      	addmi	r3, #4
20017dd4:	10db      	asrs	r3, r3, #3
20017dd6:	9303      	str	r3, [sp, #12]
20017dd8:	3301      	adds	r3, #1
20017dda:	00db      	lsls	r3, r3, #3
20017ddc:	9308      	str	r3, [sp, #32]
20017dde:	e9dd 2308 	ldrd	r2, r3, [sp, #32]
20017de2:	1a9b      	subs	r3, r3, r2
20017de4:	9306      	str	r3, [sp, #24]
20017de6:	9b03      	ldr	r3, [sp, #12]
20017de8:	eb15 0108 	adds.w	r1, r5, r8
20017dec:	eba3 0308 	sub.w	r3, r3, r8
20017df0:	d416      	bmi.n	20017e20 <__kernel_rem_pio2f+0x78>
20017df2:	3101      	adds	r1, #1
20017df4:	ed9f 7ac6 	vldr	s14, [pc, #792]	; 20018110 <__kernel_rem_pio2f+0x368>
20017df8:	9869      	ldr	r0, [sp, #420]	; 0x1a4
20017dfa:	4419      	add	r1, r3
20017dfc:	aa1e      	add	r2, sp, #120	; 0x78
20017dfe:	2b00      	cmp	r3, #0
20017e00:	bfa4      	itt	ge
20017e02:	f850 4023 	ldrge.w	r4, [r0, r3, lsl #2]
20017e06:	ee07 4a90 	vmovge	s15, r4
20017e0a:	f103 0301 	add.w	r3, r3, #1
20017e0e:	bfac      	ite	ge
20017e10:	eef8 7ae7 	vcvtge.f32.s32	s15, s15
20017e14:	eef0 7a47 	vmovlt.f32	s15, s14
20017e18:	428b      	cmp	r3, r1
20017e1a:	ece2 7a01 	vstmia	r2!, {s15}
20017e1e:	d1ee      	bne.n	20017dfe <__kernel_rem_pio2f+0x56>
20017e20:	9b04      	ldr	r3, [sp, #16]
20017e22:	2d00      	cmp	r5, #0
20017e24:	ea4f 0c83 	mov.w	ip, r3, lsl #2
20017e28:	ea4f 0a85 	mov.w	sl, r5, lsl #2
20017e2c:	db1d      	blt.n	20017e6a <__kernel_rem_pio2f+0xc2>
20017e2e:	ab1e      	add	r3, sp, #120	; 0x78
20017e30:	eb03 040c 	add.w	r4, r3, ip
20017e34:	ab47      	add	r3, sp, #284	; 0x11c
20017e36:	eb09 010c 	add.w	r1, r9, ip
20017e3a:	eb03 060a 	add.w	r6, r3, sl
20017e3e:	a846      	add	r0, sp, #280	; 0x118
20017e40:	f1b8 0f00 	cmp.w	r8, #0
20017e44:	eddf 7ab2 	vldr	s15, [pc, #712]	; 20018110 <__kernel_rem_pio2f+0x368>
20017e48:	db09      	blt.n	20017e5e <__kernel_rem_pio2f+0xb6>
20017e4a:	4622      	mov	r2, r4
20017e4c:	464b      	mov	r3, r9
20017e4e:	ecf3 6a01 	vldmia	r3!, {s13}
20017e52:	ed32 7a01 	vldmdb	r2!, {s14}
20017e56:	428b      	cmp	r3, r1
20017e58:	eee6 7a87 	vfma.f32	s15, s13, s14
20017e5c:	d1f7      	bne.n	20017e4e <__kernel_rem_pio2f+0xa6>
20017e5e:	ece0 7a01 	vstmia	r0!, {s15}
20017e62:	42b0      	cmp	r0, r6
20017e64:	f104 0404 	add.w	r4, r4, #4
20017e68:	d1ea      	bne.n	20017e40 <__kernel_rem_pio2f+0x98>
20017e6a:	f1aa 0308 	sub.w	r3, sl, #8
20017e6e:	af0a      	add	r7, sp, #40	; 0x28
20017e70:	18fb      	adds	r3, r7, r3
20017e72:	9305      	str	r3, [sp, #20]
20017e74:	46ab      	mov	fp, r5
20017e76:	ab09      	add	r3, sp, #36	; 0x24
20017e78:	9501      	str	r5, [sp, #4]
20017e7a:	ed9f 9aa7 	vldr	s18, [pc, #668]	; 20018118 <__kernel_rem_pio2f+0x370>
20017e7e:	eddf 8aa5 	vldr	s17, [pc, #660]	; 20018114 <__kernel_rem_pio2f+0x36c>
20017e82:	9d06      	ldr	r5, [sp, #24]
20017e84:	eb09 040c 	add.w	r4, r9, ip
20017e88:	449a      	add	sl, r3
20017e8a:	ae46      	add	r6, sp, #280	; 0x118
20017e8c:	ea4f 018b 	mov.w	r1, fp, lsl #2
20017e90:	ab5a      	add	r3, sp, #360	; 0x168
20017e92:	440b      	add	r3, r1
20017e94:	f1bb 0f00 	cmp.w	fp, #0
20017e98:	ed13 0a14 	vldr	s0, [r3, #-80]	; 0xffffffb0
20017e9c:	dd16      	ble.n	20017ecc <__kernel_rem_pio2f+0x124>
20017e9e:	eb06 038b 	add.w	r3, r6, fp, lsl #2
20017ea2:	463a      	mov	r2, r7
20017ea4:	ee60 7a09 	vmul.f32	s15, s0, s18
20017ea8:	eeb0 7a40 	vmov.f32	s14, s0
20017eac:	eefd 7ae7 	vcvt.s32.f32	s15, s15
20017eb0:	ed73 6a01 	vldmdb	r3!, {s13}
20017eb4:	eef8 7ae7 	vcvt.f32.s32	s15, s15
20017eb8:	42b3      	cmp	r3, r6
20017eba:	eea7 7ae8 	vfms.f32	s14, s15, s17
20017ebe:	ee37 0aa6 	vadd.f32	s0, s15, s13
20017ec2:	eebd 7ac7 	vcvt.s32.f32	s14, s14
20017ec6:	eca2 7a01 	vstmia	r2!, {s14}
20017eca:	d1eb      	bne.n	20017ea4 <__kernel_rem_pio2f+0xfc>
20017ecc:	4628      	mov	r0, r5
20017ece:	9102      	str	r1, [sp, #8]
20017ed0:	f000 fb30 	bl	20018534 <scalbnf>
20017ed4:	eeb0 8a40 	vmov.f32	s16, s0
20017ed8:	eeb4 0a00 	vmov.f32	s0, #64	; 0x3e000000  0.125
20017edc:	ee28 0a00 	vmul.f32	s0, s16, s0
20017ee0:	f000 fae4 	bl	200184ac <floorf>
20017ee4:	eef2 7a00 	vmov.f32	s15, #32	; 0x41000000  8.0
20017ee8:	eea0 8a67 	vfms.f32	s16, s0, s15
20017eec:	2d00      	cmp	r5, #0
20017eee:	9902      	ldr	r1, [sp, #8]
20017ef0:	eefd 9ac8 	vcvt.s32.f32	s19, s16
20017ef4:	eef8 7ae9 	vcvt.f32.s32	s15, s19
20017ef8:	ee38 8a67 	vsub.f32	s16, s16, s15
20017efc:	dd75      	ble.n	20017fea <__kernel_rem_pio2f+0x242>
20017efe:	f10b 3cff 	add.w	ip, fp, #4294967295	; 0xffffffff
20017f02:	f1c5 0308 	rsb	r3, r5, #8
20017f06:	f857 202c 	ldr.w	r2, [r7, ip, lsl #2]
20017f0a:	fa42 f003 	asr.w	r0, r2, r3
20017f0e:	fa00 f303 	lsl.w	r3, r0, r3
20017f12:	1ad3      	subs	r3, r2, r3
20017f14:	f847 302c 	str.w	r3, [r7, ip, lsl #2]
20017f18:	f1c5 0207 	rsb	r2, r5, #7
20017f1c:	ee19 ca90 	vmov	ip, s19
20017f20:	fa43 f202 	asr.w	r2, r3, r2
20017f24:	4484      	add	ip, r0
20017f26:	2a00      	cmp	r2, #0
20017f28:	ee09 ca90 	vmov	s19, ip
20017f2c:	dc66      	bgt.n	20017ffc <__kernel_rem_pio2f+0x254>
20017f2e:	eeb5 8a40 	vcmp.f32	s16, #0.0
20017f32:	eef1 fa10 	vmrs	APSR_nzcv, fpscr
20017f36:	f040 80a3 	bne.w	20018080 <__kernel_rem_pio2f+0x2d8>
20017f3a:	9b01      	ldr	r3, [sp, #4]
20017f3c:	f10b 3cff 	add.w	ip, fp, #4294967295	; 0xffffffff
20017f40:	4563      	cmp	r3, ip
20017f42:	dc0e      	bgt.n	20017f62 <__kernel_rem_pio2f+0x1ba>
20017f44:	f10b 4180 	add.w	r1, fp, #1073741824	; 0x40000000
20017f48:	3901      	subs	r1, #1
20017f4a:	eb07 0181 	add.w	r1, r7, r1, lsl #2
20017f4e:	2000      	movs	r0, #0
20017f50:	f851 3904 	ldr.w	r3, [r1], #-4
20017f54:	4551      	cmp	r1, sl
20017f56:	ea40 0003 	orr.w	r0, r0, r3
20017f5a:	d1f9      	bne.n	20017f50 <__kernel_rem_pio2f+0x1a8>
20017f5c:	2800      	cmp	r0, #0
20017f5e:	f040 80ee 	bne.w	2001813e <__kernel_rem_pio2f+0x396>
20017f62:	9b01      	ldr	r3, [sp, #4]
20017f64:	3b01      	subs	r3, #1
20017f66:	f857 3023 	ldr.w	r3, [r7, r3, lsl #2]
20017f6a:	2b00      	cmp	r3, #0
20017f6c:	f040 80e2 	bne.w	20018134 <__kernel_rem_pio2f+0x38c>
20017f70:	9b05      	ldr	r3, [sp, #20]
20017f72:	2001      	movs	r0, #1
20017f74:	f853 2904 	ldr.w	r2, [r3], #-4
20017f78:	3001      	adds	r0, #1
20017f7a:	2a00      	cmp	r2, #0
20017f7c:	d0fa      	beq.n	20017f74 <__kernel_rem_pio2f+0x1cc>
20017f7e:	f10b 0301 	add.w	r3, fp, #1
20017f82:	4458      	add	r0, fp
20017f84:	469c      	mov	ip, r3
20017f86:	9a03      	ldr	r2, [sp, #12]
20017f88:	eb03 0e02 	add.w	lr, r3, r2
20017f8c:	9a04      	ldr	r2, [sp, #16]
20017f8e:	a91e      	add	r1, sp, #120	; 0x78
20017f90:	445a      	add	r2, fp
20017f92:	f10e 4e80 	add.w	lr, lr, #1073741824	; 0x40000000
20017f96:	eb01 0282 	add.w	r2, r1, r2, lsl #2
20017f9a:	9969      	ldr	r1, [sp, #420]	; 0x1a4
20017f9c:	f10e 3eff 	add.w	lr, lr, #4294967295	; 0xffffffff
20017fa0:	eb01 0e8e 	add.w	lr, r1, lr, lsl #2
20017fa4:	eb06 0b83 	add.w	fp, r6, r3, lsl #2
20017fa8:	f85e 3f04 	ldr.w	r3, [lr, #4]!
20017fac:	ed9f 7a58 	vldr	s14, [pc, #352]	; 20018110 <__kernel_rem_pio2f+0x368>
20017fb0:	ee07 3a90 	vmov	s15, r3
20017fb4:	eef8 7ae7 	vcvt.f32.s32	s15, s15
20017fb8:	4611      	mov	r1, r2
20017fba:	f1b8 0f00 	cmp.w	r8, #0
20017fbe:	ece1 7a01 	vstmia	r1!, {s15}
20017fc2:	db09      	blt.n	20017fd8 <__kernel_rem_pio2f+0x230>
20017fc4:	464b      	mov	r3, r9
20017fc6:	e001      	b.n	20017fcc <__kernel_rem_pio2f+0x224>
20017fc8:	ed72 7a01 	vldmdb	r2!, {s15}
20017fcc:	ecf3 6a01 	vldmia	r3!, {s13}
20017fd0:	42a3      	cmp	r3, r4
20017fd2:	eea6 7aa7 	vfma.f32	s14, s13, s15
20017fd6:	d1f7      	bne.n	20017fc8 <__kernel_rem_pio2f+0x220>
20017fd8:	f10c 0c01 	add.w	ip, ip, #1
20017fdc:	4584      	cmp	ip, r0
20017fde:	ecab 7a01 	vstmia	fp!, {s14}
20017fe2:	460a      	mov	r2, r1
20017fe4:	dde0      	ble.n	20017fa8 <__kernel_rem_pio2f+0x200>
20017fe6:	4683      	mov	fp, r0
20017fe8:	e750      	b.n	20017e8c <__kernel_rem_pio2f+0xe4>
20017fea:	f040 8099 	bne.w	20018120 <__kernel_rem_pio2f+0x378>
20017fee:	f10b 33ff 	add.w	r3, fp, #4294967295	; 0xffffffff
20017ff2:	f857 2023 	ldr.w	r2, [r7, r3, lsl #2]
20017ff6:	1212      	asrs	r2, r2, #8
20017ff8:	2a00      	cmp	r2, #0
20017ffa:	dd98      	ble.n	20017f2e <__kernel_rem_pio2f+0x186>
20017ffc:	ee19 3a90 	vmov	r3, s19
20018000:	f1bb 0f00 	cmp.w	fp, #0
20018004:	f103 0301 	add.w	r3, r3, #1
20018008:	ee09 3a90 	vmov	s19, r3
2001800c:	f340 81c4 	ble.w	20018398 <__kernel_rem_pio2f+0x5f0>
20018010:	6838      	ldr	r0, [r7, #0]
20018012:	2800      	cmp	r0, #0
20018014:	d161      	bne.n	200180da <__kernel_rem_pio2f+0x332>
20018016:	f1bb 0f01 	cmp.w	fp, #1
2001801a:	d00b      	beq.n	20018034 <__kernel_rem_pio2f+0x28c>
2001801c:	46be      	mov	lr, r7
2001801e:	f04f 0c01 	mov.w	ip, #1
20018022:	f85e 0f04 	ldr.w	r0, [lr, #4]!
20018026:	f10c 0301 	add.w	r3, ip, #1
2001802a:	2800      	cmp	r0, #0
2001802c:	d158      	bne.n	200180e0 <__kernel_rem_pio2f+0x338>
2001802e:	459b      	cmp	fp, r3
20018030:	469c      	mov	ip, r3
20018032:	d1f6      	bne.n	20018022 <__kernel_rem_pio2f+0x27a>
20018034:	2d00      	cmp	r5, #0
20018036:	dd0c      	ble.n	20018052 <__kernel_rem_pio2f+0x2aa>
20018038:	2d01      	cmp	r5, #1
2001803a:	f000 8115 	beq.w	20018268 <__kernel_rem_pio2f+0x4c0>
2001803e:	2d02      	cmp	r5, #2
20018040:	d107      	bne.n	20018052 <__kernel_rem_pio2f+0x2aa>
20018042:	f10b 31ff 	add.w	r1, fp, #4294967295	; 0xffffffff
20018046:	f857 3021 	ldr.w	r3, [r7, r1, lsl #2]
2001804a:	f003 033f 	and.w	r3, r3, #63	; 0x3f
2001804e:	f847 3021 	str.w	r3, [r7, r1, lsl #2]
20018052:	2a02      	cmp	r2, #2
20018054:	f47f af6b 	bne.w	20017f2e <__kernel_rem_pio2f+0x186>
20018058:	eeb7 0a00 	vmov.f32	s0, #112	; 0x3f800000  1.0
2001805c:	ee30 8a48 	vsub.f32	s16, s0, s16
20018060:	2800      	cmp	r0, #0
20018062:	f43f af64 	beq.w	20017f2e <__kernel_rem_pio2f+0x186>
20018066:	4628      	mov	r0, r5
20018068:	9202      	str	r2, [sp, #8]
2001806a:	f000 fa63 	bl	20018534 <scalbnf>
2001806e:	ee38 8a40 	vsub.f32	s16, s16, s0
20018072:	9a02      	ldr	r2, [sp, #8]
20018074:	eeb5 8a40 	vcmp.f32	s16, #0.0
20018078:	eef1 fa10 	vmrs	APSR_nzcv, fpscr
2001807c:	f43f af5d 	beq.w	20017f3a <__kernel_rem_pio2f+0x192>
20018080:	4690      	mov	r8, r2
20018082:	e9dd 3208 	ldrd	r3, r2, [sp, #32]
20018086:	eeb0 0a48 	vmov.f32	s0, s16
2001808a:	1a98      	subs	r0, r3, r2
2001808c:	9d01      	ldr	r5, [sp, #4]
2001808e:	f000 fa51 	bl	20018534 <scalbnf>
20018092:	ed9f 7a20 	vldr	s14, [pc, #128]	; 20018114 <__kernel_rem_pio2f+0x36c>
20018096:	eeb4 0ac7 	vcmpe.f32	s0, s14
2001809a:	eef1 fa10 	vmrs	APSR_nzcv, fpscr
2001809e:	f2c0 817d 	blt.w	2001839c <__kernel_rem_pio2f+0x5f4>
200180a2:	eddf 7a1d 	vldr	s15, [pc, #116]	; 20018118 <__kernel_rem_pio2f+0x370>
200180a6:	9b06      	ldr	r3, [sp, #24]
200180a8:	ee60 7a27 	vmul.f32	s15, s0, s15
200180ac:	3308      	adds	r3, #8
200180ae:	eefd 7ae7 	vcvt.s32.f32	s15, s15
200180b2:	9306      	str	r3, [sp, #24]
200180b4:	eef8 7ae7 	vcvt.f32.s32	s15, s15
200180b8:	f10b 0301 	add.w	r3, fp, #1
200180bc:	eea7 0ac7 	vfms.f32	s0, s15, s14
200180c0:	eefd 7ae7 	vcvt.s32.f32	s15, s15
200180c4:	eebd 0ac0 	vcvt.s32.f32	s0, s0
200180c8:	ee10 2a10 	vmov	r2, s0
200180cc:	f847 202b 	str.w	r2, [r7, fp, lsl #2]
200180d0:	ee17 2a90 	vmov	r2, s15
200180d4:	f847 2023 	str.w	r2, [r7, r3, lsl #2]
200180d8:	e046      	b.n	20018168 <__kernel_rem_pio2f+0x3c0>
200180da:	2301      	movs	r3, #1
200180dc:	f04f 0c00 	mov.w	ip, #0
200180e0:	f5c0 7080 	rsb	r0, r0, #256	; 0x100
200180e4:	459b      	cmp	fp, r3
200180e6:	f847 002c 	str.w	r0, [r7, ip, lsl #2]
200180ea:	dd0c      	ble.n	20018106 <__kernel_rem_pio2f+0x35e>
200180ec:	f857 0023 	ldr.w	r0, [r7, r3, lsl #2]
200180f0:	4439      	add	r1, r7
200180f2:	eb07 0383 	add.w	r3, r7, r3, lsl #2
200180f6:	e000      	b.n	200180fa <__kernel_rem_pio2f+0x352>
200180f8:	6818      	ldr	r0, [r3, #0]
200180fa:	f1c0 00ff 	rsb	r0, r0, #255	; 0xff
200180fe:	f843 0b04 	str.w	r0, [r3], #4
20018102:	428b      	cmp	r3, r1
20018104:	d1f8      	bne.n	200180f8 <__kernel_rem_pio2f+0x350>
20018106:	2001      	movs	r0, #1
20018108:	e794      	b.n	20018034 <__kernel_rem_pio2f+0x28c>
2001810a:	bf00      	nop
2001810c:	200189b0 	.word	0x200189b0
20018110:	00000000 	.word	0x00000000
20018114:	43800000 	.word	0x43800000
20018118:	3b800000 	.word	0x3b800000
2001811c:	3fc90000 	.word	0x3fc90000
20018120:	eef6 7a00 	vmov.f32	s15, #96	; 0x3f000000  0.5
20018124:	eeb4 8ae7 	vcmpe.f32	s16, s15
20018128:	eef1 fa10 	vmrs	APSR_nzcv, fpscr
2001812c:	f280 80aa 	bge.w	20018284 <__kernel_rem_pio2f+0x4dc>
20018130:	2200      	movs	r2, #0
20018132:	e6fc      	b.n	20017f2e <__kernel_rem_pio2f+0x186>
20018134:	f10b 0301 	add.w	r3, fp, #1
20018138:	469c      	mov	ip, r3
2001813a:	4618      	mov	r0, r3
2001813c:	e723      	b.n	20017f86 <__kernel_rem_pio2f+0x1de>
2001813e:	9906      	ldr	r1, [sp, #24]
20018140:	9d01      	ldr	r5, [sp, #4]
20018142:	4690      	mov	r8, r2
20018144:	f857 202c 	ldr.w	r2, [r7, ip, lsl #2]
20018148:	3908      	subs	r1, #8
2001814a:	4663      	mov	r3, ip
2001814c:	9106      	str	r1, [sp, #24]
2001814e:	b95a      	cbnz	r2, 20018168 <__kernel_rem_pio2f+0x3c0>
20018150:	f10b 4280 	add.w	r2, fp, #1073741824	; 0x40000000
20018154:	3a02      	subs	r2, #2
20018156:	eb07 0282 	add.w	r2, r7, r2, lsl #2
2001815a:	f852 0904 	ldr.w	r0, [r2], #-4
2001815e:	3b01      	subs	r3, #1
20018160:	3908      	subs	r1, #8
20018162:	2800      	cmp	r0, #0
20018164:	d0f9      	beq.n	2001815a <__kernel_rem_pio2f+0x3b2>
20018166:	9106      	str	r1, [sp, #24]
20018168:	9806      	ldr	r0, [sp, #24]
2001816a:	9301      	str	r3, [sp, #4]
2001816c:	eeb7 0a00 	vmov.f32	s0, #112	; 0x3f800000  1.0
20018170:	f000 f9e0 	bl	20018534 <scalbnf>
20018174:	9b01      	ldr	r3, [sp, #4]
20018176:	2b00      	cmp	r3, #0
20018178:	f2c0 812f 	blt.w	200183da <__kernel_rem_pio2f+0x632>
2001817c:	009e      	lsls	r6, r3, #2
2001817e:	aa46      	add	r2, sp, #280	; 0x118
20018180:	f106 0c04 	add.w	ip, r6, #4
20018184:	ed1f 7a1c 	vldr	s14, [pc, #-112]	; 20018118 <__kernel_rem_pio2f+0x370>
20018188:	4416      	add	r6, r2
2001818a:	1d31      	adds	r1, r6, #4
2001818c:	eb07 020c 	add.w	r2, r7, ip
20018190:	ed72 7a01 	vldmdb	r2!, {s15}
20018194:	eef8 7ae7 	vcvt.f32.s32	s15, s15
20018198:	42ba      	cmp	r2, r7
2001819a:	ee67 7a80 	vmul.f32	s15, s15, s0
2001819e:	ee20 0a07 	vmul.f32	s0, s0, s14
200181a2:	ed61 7a01 	vstmdb	r1!, {s15}
200181a6:	d1f3      	bne.n	20018190 <__kernel_rem_pio2f+0x3e8>
200181a8:	f10d 0ec8 	add.w	lr, sp, #200	; 0xc8
200181ac:	2d00      	cmp	r5, #0
200181ae:	4677      	mov	r7, lr
200181b0:	f04f 0400 	mov.w	r4, #0
200181b4:	ed1f 6a27 	vldr	s12, [pc, #-156]	; 2001811c <__kernel_rem_pio2f+0x374>
200181b8:	db1d      	blt.n	200181f6 <__kernel_rem_pio2f+0x44e>
200181ba:	4892      	ldr	r0, [pc, #584]	; (20018404 <__kernel_rem_pio2f+0x65c>)
200181bc:	eddf 7a92 	vldr	s15, [pc, #584]	; 20018408 <__kernel_rem_pio2f+0x660>
200181c0:	4631      	mov	r1, r6
200181c2:	eeb0 7a46 	vmov.f32	s14, s12
200181c6:	2200      	movs	r2, #0
200181c8:	e003      	b.n	200181d2 <__kernel_rem_pio2f+0x42a>
200181ca:	42a2      	cmp	r2, r4
200181cc:	dc08      	bgt.n	200181e0 <__kernel_rem_pio2f+0x438>
200181ce:	ecb0 7a01 	vldmia	r0!, {s14}
200181d2:	ecf1 6a01 	vldmia	r1!, {s13}
200181d6:	3201      	adds	r2, #1
200181d8:	4295      	cmp	r5, r2
200181da:	eee6 7a87 	vfma.f32	s15, s13, s14
200181de:	daf4      	bge.n	200181ca <__kernel_rem_pio2f+0x422>
200181e0:	429c      	cmp	r4, r3
200181e2:	ece7 7a01 	vstmia	r7!, {s15}
200181e6:	f1a6 0604 	sub.w	r6, r6, #4
200181ea:	f104 0201 	add.w	r2, r4, #1
200181ee:	d00c      	beq.n	2001820a <__kernel_rem_pio2f+0x462>
200181f0:	2d00      	cmp	r5, #0
200181f2:	4614      	mov	r4, r2
200181f4:	dae1      	bge.n	200181ba <__kernel_rem_pio2f+0x412>
200181f6:	eddf 7a84 	vldr	s15, [pc, #528]	; 20018408 <__kernel_rem_pio2f+0x660>
200181fa:	429c      	cmp	r4, r3
200181fc:	ece7 7a01 	vstmia	r7!, {s15}
20018200:	f1a6 0604 	sub.w	r6, r6, #4
20018204:	f104 0201 	add.w	r2, r4, #1
20018208:	d1f2      	bne.n	200181f0 <__kernel_rem_pio2f+0x448>
2001820a:	9a68      	ldr	r2, [sp, #416]	; 0x1a0
2001820c:	2a03      	cmp	r2, #3
2001820e:	d822      	bhi.n	20018256 <__kernel_rem_pio2f+0x4ae>
20018210:	e8df f002 	tbb	[pc, r2]
20018214:	4a9f9fb1 	.word	0x4a9f9fb1
20018218:	eddf 7a7b 	vldr	s15, [pc, #492]	; 20018408 <__kernel_rem_pio2f+0x660>
2001821c:	ed9d 7a32 	vldr	s14, [sp, #200]	; 0xc8
20018220:	4642      	mov	r2, r8
20018222:	ee37 7a67 	vsub.f32	s14, s14, s15
20018226:	2a00      	cmp	r2, #0
20018228:	f040 80c0 	bne.w	200183ac <__kernel_rem_pio2f+0x604>
2001822c:	9a07      	ldr	r2, [sp, #28]
2001822e:	2b00      	cmp	r3, #0
20018230:	edc2 7a00 	vstr	s15, [r2]
20018234:	dd0c      	ble.n	20018250 <__kernel_rem_pio2f+0x4a8>
20018236:	a933      	add	r1, sp, #204	; 0xcc
20018238:	2201      	movs	r2, #1
2001823a:	ecf1 7a01 	vldmia	r1!, {s15}
2001823e:	3201      	adds	r2, #1
20018240:	4293      	cmp	r3, r2
20018242:	ee37 7a27 	vadd.f32	s14, s14, s15
20018246:	daf8      	bge.n	2001823a <__kernel_rem_pio2f+0x492>
20018248:	4643      	mov	r3, r8
2001824a:	b10b      	cbz	r3, 20018250 <__kernel_rem_pio2f+0x4a8>
2001824c:	eeb1 7a47 	vneg.f32	s14, s14
20018250:	9b07      	ldr	r3, [sp, #28]
20018252:	ed83 7a01 	vstr	s14, [r3, #4]
20018256:	ee19 3a90 	vmov	r3, s19
2001825a:	f003 0007 	and.w	r0, r3, #7
2001825e:	b05b      	add	sp, #364	; 0x16c
20018260:	ecbd 8b04 	vpop	{d8-d9}
20018264:	e8bd 8ff0 	ldmia.w	sp!, {r4, r5, r6, r7, r8, r9, sl, fp, pc}
20018268:	f10b 31ff 	add.w	r1, fp, #4294967295	; 0xffffffff
2001826c:	f857 3021 	ldr.w	r3, [r7, r1, lsl #2]
20018270:	f003 037f 	and.w	r3, r3, #127	; 0x7f
20018274:	f847 3021 	str.w	r3, [r7, r1, lsl #2]
20018278:	e6eb      	b.n	20018052 <__kernel_rem_pio2f+0x2aa>
2001827a:	2308      	movs	r3, #8
2001827c:	9308      	str	r3, [sp, #32]
2001827e:	2300      	movs	r3, #0
20018280:	9303      	str	r3, [sp, #12]
20018282:	e5ac      	b.n	20017dde <__kernel_rem_pio2f+0x36>
20018284:	ee19 3a90 	vmov	r3, s19
20018288:	f1bb 0f00 	cmp.w	fp, #0
2001828c:	f103 0301 	add.w	r3, r3, #1
20018290:	ee09 3a90 	vmov	s19, r3
20018294:	bfc8      	it	gt
20018296:	2202      	movgt	r2, #2
20018298:	f73f aeba 	bgt.w	20018010 <__kernel_rem_pio2f+0x268>
2001829c:	eef7 7a00 	vmov.f32	s15, #112	; 0x3f800000  1.0
200182a0:	ee37 8ac8 	vsub.f32	s16, s15, s16
200182a4:	2202      	movs	r2, #2
200182a6:	e642      	b.n	20017f2e <__kernel_rem_pio2f+0x186>
200182a8:	2b00      	cmp	r3, #0
200182aa:	f340 80a8 	ble.w	200183fe <__kernel_rem_pio2f+0x656>
200182ae:	0099      	lsls	r1, r3, #2
200182b0:	aa5a      	add	r2, sp, #360	; 0x168
200182b2:	440a      	add	r2, r1
200182b4:	f10d 0ec8 	add.w	lr, sp, #200	; 0xc8
200182b8:	ed52 6a28 	vldr	s13, [r2, #-160]	; 0xffffff60
200182bc:	eb0e 0283 	add.w	r2, lr, r3, lsl #2
200182c0:	ed72 7a01 	vldmdb	r2!, {s15}
200182c4:	ee37 7aa6 	vadd.f32	s14, s15, s13
200182c8:	4596      	cmp	lr, r2
200182ca:	ee77 7ac7 	vsub.f32	s15, s15, s14
200182ce:	ed82 7a00 	vstr	s14, [r2]
200182d2:	ee77 7aa6 	vadd.f32	s15, s15, s13
200182d6:	eef0 6a47 	vmov.f32	s13, s14
200182da:	edc2 7a01 	vstr	s15, [r2, #4]
200182de:	d1ef      	bne.n	200182c0 <__kernel_rem_pio2f+0x518>
200182e0:	2b01      	cmp	r3, #1
200182e2:	f340 808c 	ble.w	200183fe <__kernel_rem_pio2f+0x656>
200182e6:	f103 4380 	add.w	r3, r3, #1073741824	; 0x40000000
200182ea:	3b01      	subs	r3, #1
200182ec:	aa5a      	add	r2, sp, #360	; 0x168
200182ee:	009b      	lsls	r3, r3, #2
200182f0:	4411      	add	r1, r2
200182f2:	1d1a      	adds	r2, r3, #4
200182f4:	ed51 6a28 	vldr	s13, [r1, #-160]	; 0xffffff60
200182f8:	4472      	add	r2, lr
200182fa:	a933      	add	r1, sp, #204	; 0xcc
200182fc:	ed72 7a01 	vldmdb	r2!, {s15}
20018300:	ee37 7aa6 	vadd.f32	s14, s15, s13
20018304:	4291      	cmp	r1, r2
20018306:	ee77 7ac7 	vsub.f32	s15, s15, s14
2001830a:	ed82 7a00 	vstr	s14, [r2]
2001830e:	ee77 7aa6 	vadd.f32	s15, s15, s13
20018312:	eef0 6a47 	vmov.f32	s13, s14
20018316:	edc2 7a01 	vstr	s15, [r2, #4]
2001831a:	d1ef      	bne.n	200182fc <__kernel_rem_pio2f+0x554>
2001831c:	3308      	adds	r3, #8
2001831e:	eddf 7a3a 	vldr	s15, [pc, #232]	; 20018408 <__kernel_rem_pio2f+0x660>
20018322:	4473      	add	r3, lr
20018324:	f10e 0e08 	add.w	lr, lr, #8
20018328:	ed33 7a01 	vldmdb	r3!, {s14}
2001832c:	459e      	cmp	lr, r3
2001832e:	ee77 7a87 	vadd.f32	s15, s15, s14
20018332:	d1f9      	bne.n	20018328 <__kernel_rem_pio2f+0x580>
20018334:	4643      	mov	r3, r8
20018336:	eddd 6a32 	vldr	s13, [sp, #200]	; 0xc8
2001833a:	ed9d 7a33 	vldr	s14, [sp, #204]	; 0xcc
2001833e:	2b00      	cmp	r3, #0
20018340:	d13d      	bne.n	200183be <__kernel_rem_pio2f+0x616>
20018342:	9b07      	ldr	r3, [sp, #28]
20018344:	edc3 6a00 	vstr	s13, [r3]
20018348:	ed83 7a01 	vstr	s14, [r3, #4]
2001834c:	edc3 7a02 	vstr	s15, [r3, #8]
20018350:	e781      	b.n	20018256 <__kernel_rem_pio2f+0x4ae>
20018352:	eddf 7a2d 	vldr	s15, [pc, #180]	; 20018408 <__kernel_rem_pio2f+0x660>
20018356:	44f4      	add	ip, lr
20018358:	ed3c 7a01 	vldmdb	ip!, {s14}
2001835c:	45e6      	cmp	lr, ip
2001835e:	ee77 7a87 	vadd.f32	s15, s15, s14
20018362:	d1f9      	bne.n	20018358 <__kernel_rem_pio2f+0x5b0>
20018364:	ed9d 7a32 	vldr	s14, [sp, #200]	; 0xc8
20018368:	4642      	mov	r2, r8
2001836a:	ee37 7a67 	vsub.f32	s14, s14, s15
2001836e:	2a00      	cmp	r2, #0
20018370:	f43f af5c 	beq.w	2001822c <__kernel_rem_pio2f+0x484>
20018374:	e01a      	b.n	200183ac <__kernel_rem_pio2f+0x604>
20018376:	eddf 7a24 	vldr	s15, [pc, #144]	; 20018408 <__kernel_rem_pio2f+0x660>
2001837a:	44f4      	add	ip, lr
2001837c:	ed3c 7a01 	vldmdb	ip!, {s14}
20018380:	45e6      	cmp	lr, ip
20018382:	ee77 7a87 	vadd.f32	s15, s15, s14
20018386:	d1f9      	bne.n	2001837c <__kernel_rem_pio2f+0x5d4>
20018388:	4643      	mov	r3, r8
2001838a:	b10b      	cbz	r3, 20018390 <__kernel_rem_pio2f+0x5e8>
2001838c:	eef1 7a67 	vneg.f32	s15, s15
20018390:	9b07      	ldr	r3, [sp, #28]
20018392:	edc3 7a00 	vstr	s15, [r3]
20018396:	e75e      	b.n	20018256 <__kernel_rem_pio2f+0x4ae>
20018398:	2000      	movs	r0, #0
2001839a:	e64b      	b.n	20018034 <__kernel_rem_pio2f+0x28c>
2001839c:	eebd 0ac0 	vcvt.s32.f32	s0, s0
200183a0:	465b      	mov	r3, fp
200183a2:	ee10 2a10 	vmov	r2, s0
200183a6:	f847 202b 	str.w	r2, [r7, fp, lsl #2]
200183aa:	e6dd      	b.n	20018168 <__kernel_rem_pio2f+0x3c0>
200183ac:	9a07      	ldr	r2, [sp, #28]
200183ae:	eef1 7a67 	vneg.f32	s15, s15
200183b2:	2b00      	cmp	r3, #0
200183b4:	edc2 7a00 	vstr	s15, [r2]
200183b8:	f73f af3d 	bgt.w	20018236 <__kernel_rem_pio2f+0x48e>
200183bc:	e746      	b.n	2001824c <__kernel_rem_pio2f+0x4a4>
200183be:	9b07      	ldr	r3, [sp, #28]
200183c0:	eef1 6a66 	vneg.f32	s13, s13
200183c4:	eeb1 7a47 	vneg.f32	s14, s14
200183c8:	eef1 7a67 	vneg.f32	s15, s15
200183cc:	edc3 6a00 	vstr	s13, [r3]
200183d0:	ed83 7a01 	vstr	s14, [r3, #4]
200183d4:	edc3 7a02 	vstr	s15, [r3, #8]
200183d8:	e73d      	b.n	20018256 <__kernel_rem_pio2f+0x4ae>
200183da:	9a68      	ldr	r2, [sp, #416]	; 0x1a0
200183dc:	2a03      	cmp	r2, #3
200183de:	f63f af3a 	bhi.w	20018256 <__kernel_rem_pio2f+0x4ae>
200183e2:	a101      	add	r1, pc, #4	; (adr r1, 200183e8 <__kernel_rem_pio2f+0x640>)
200183e4:	f851 f022 	ldr.w	pc, [r1, r2, lsl #2]
200183e8:	200183f9 	.word	0x200183f9
200183ec:	20018219 	.word	0x20018219
200183f0:	20018219 	.word	0x20018219
200183f4:	200182a9 	.word	0x200182a9
200183f8:	eddf 7a03 	vldr	s15, [pc, #12]	; 20018408 <__kernel_rem_pio2f+0x660>
200183fc:	e7c4      	b.n	20018388 <__kernel_rem_pio2f+0x5e0>
200183fe:	eddf 7a02 	vldr	s15, [pc, #8]	; 20018408 <__kernel_rem_pio2f+0x660>
20018402:	e797      	b.n	20018334 <__kernel_rem_pio2f+0x58c>
20018404:	200189c0 	.word	0x200189c0
20018408:	00000000 	.word	0x00000000

2001840c <__kernel_sinf>:
2001840c:	ee10 3a10 	vmov	r3, s0
20018410:	f023 4300 	bic.w	r3, r3, #2147483648	; 0x80000000
20018414:	f1b3 5f48 	cmp.w	r3, #838860800	; 0x32000000
20018418:	da04      	bge.n	20018424 <__kernel_sinf+0x18>
2001841a:	eefd 7ac0 	vcvt.s32.f32	s15, s0
2001841e:	ee17 3a90 	vmov	r3, s15
20018422:	b35b      	cbz	r3, 2001847c <__kernel_sinf+0x70>
20018424:	ee60 7a00 	vmul.f32	s15, s0, s0
20018428:	ed9f 5a15 	vldr	s10, [pc, #84]	; 20018480 <__kernel_sinf+0x74>
2001842c:	eddf 5a15 	vldr	s11, [pc, #84]	; 20018484 <__kernel_sinf+0x78>
20018430:	ed9f 6a15 	vldr	s12, [pc, #84]	; 20018488 <__kernel_sinf+0x7c>
20018434:	eddf 6a15 	vldr	s13, [pc, #84]	; 2001848c <__kernel_sinf+0x80>
20018438:	ed9f 7a15 	vldr	s14, [pc, #84]	; 20018490 <__kernel_sinf+0x84>
2001843c:	eee7 5a85 	vfma.f32	s11, s15, s10
20018440:	ee20 5a27 	vmul.f32	s10, s0, s15
20018444:	eea5 6aa7 	vfma.f32	s12, s11, s15
20018448:	eee6 6a27 	vfma.f32	s13, s12, s15
2001844c:	eea6 7aa7 	vfma.f32	s14, s13, s15
20018450:	b930      	cbnz	r0, 20018460 <__kernel_sinf+0x54>
20018452:	eddf 6a10 	vldr	s13, [pc, #64]	; 20018494 <__kernel_sinf+0x88>
20018456:	eee7 6a87 	vfma.f32	s13, s15, s14
2001845a:	eea6 0a85 	vfma.f32	s0, s13, s10
2001845e:	4770      	bx	lr
20018460:	ee27 7a45 	vnmul.f32	s14, s14, s10
20018464:	eef6 6a00 	vmov.f32	s13, #96	; 0x3f000000  0.5
20018468:	eea0 7aa6 	vfma.f32	s14, s1, s13
2001846c:	eddf 6a0a 	vldr	s13, [pc, #40]	; 20018498 <__kernel_sinf+0x8c>
20018470:	eed7 0a27 	vfnms.f32	s1, s14, s15
20018474:	eee5 0a26 	vfma.f32	s1, s10, s13
20018478:	ee30 0a60 	vsub.f32	s0, s0, s1
2001847c:	4770      	bx	lr
2001847e:	bf00      	nop
20018480:	2f2ec9d3 	.word	0x2f2ec9d3
20018484:	b2d72f34 	.word	0xb2d72f34
20018488:	3638ef1b 	.word	0x3638ef1b
2001848c:	b9500d01 	.word	0xb9500d01
20018490:	3c088889 	.word	0x3c088889
20018494:	be2aaaab 	.word	0xbe2aaaab
20018498:	3e2aaaab 	.word	0x3e2aaaab

2001849c <fabsf>:
2001849c:	ee10 3a10 	vmov	r3, s0
200184a0:	f023 4300 	bic.w	r3, r3, #2147483648	; 0x80000000
200184a4:	ee00 3a10 	vmov	s0, r3
200184a8:	4770      	bx	lr
200184aa:	bf00      	nop

200184ac <floorf>:
200184ac:	ee10 2a10 	vmov	r2, s0
200184b0:	f022 4100 	bic.w	r1, r2, #2147483648	; 0x80000000
200184b4:	0dcb      	lsrs	r3, r1, #23
200184b6:	3b7f      	subs	r3, #127	; 0x7f
200184b8:	2b16      	cmp	r3, #22
200184ba:	dc28      	bgt.n	2001850e <floorf+0x62>
200184bc:	2b00      	cmp	r3, #0
200184be:	db18      	blt.n	200184f2 <floorf+0x46>
200184c0:	4919      	ldr	r1, [pc, #100]	; (20018528 <floorf+0x7c>)
200184c2:	4119      	asrs	r1, r3
200184c4:	420a      	tst	r2, r1
200184c6:	d021      	beq.n	2001850c <floorf+0x60>
200184c8:	eddf 7a18 	vldr	s15, [pc, #96]	; 2001852c <floorf+0x80>
200184cc:	ee70 7a27 	vadd.f32	s15, s0, s15
200184d0:	eef5 7ac0 	vcmpe.f32	s15, #0.0
200184d4:	eef1 fa10 	vmrs	APSR_nzcv, fpscr
200184d8:	dd18      	ble.n	2001850c <floorf+0x60>
200184da:	2a00      	cmp	r2, #0
200184dc:	da04      	bge.n	200184e8 <floorf+0x3c>
200184de:	f44f 0000 	mov.w	r0, #8388608	; 0x800000
200184e2:	fa40 f303 	asr.w	r3, r0, r3
200184e6:	441a      	add	r2, r3
200184e8:	ea22 0301 	bic.w	r3, r2, r1
200184ec:	ee00 3a10 	vmov	s0, r3
200184f0:	4770      	bx	lr
200184f2:	eddf 7a0e 	vldr	s15, [pc, #56]	; 2001852c <floorf+0x80>
200184f6:	ee70 7a27 	vadd.f32	s15, s0, s15
200184fa:	eef5 7ac0 	vcmpe.f32	s15, #0.0
200184fe:	eef1 fa10 	vmrs	APSR_nzcv, fpscr
20018502:	dd03      	ble.n	2001850c <floorf+0x60>
20018504:	2a00      	cmp	r2, #0
20018506:	db08      	blt.n	2001851a <floorf+0x6e>
20018508:	ed9f 0a09 	vldr	s0, [pc, #36]	; 20018530 <floorf+0x84>
2001850c:	4770      	bx	lr
2001850e:	f1b1 4fff 	cmp.w	r1, #2139095040	; 0x7f800000
20018512:	d3fb      	bcc.n	2001850c <floorf+0x60>
20018514:	ee30 0a00 	vadd.f32	s0, s0, s0
20018518:	4770      	bx	lr
2001851a:	2900      	cmp	r1, #0
2001851c:	eeff 7a00 	vmov.f32	s15, #240	; 0xbf800000 -1.0
20018520:	bf18      	it	ne
20018522:	eeb0 0a67 	vmovne.f32	s0, s15
20018526:	4770      	bx	lr
20018528:	007fffff 	.word	0x007fffff
2001852c:	7149f2ca 	.word	0x7149f2ca
20018530:	00000000 	.word	0x00000000

20018534 <scalbnf>:
20018534:	b082      	sub	sp, #8
20018536:	ed8d 0a01 	vstr	s0, [sp, #4]
2001853a:	9b01      	ldr	r3, [sp, #4]
2001853c:	f033 4200 	bics.w	r2, r3, #2147483648	; 0x80000000
20018540:	d02a      	beq.n	20018598 <scalbnf+0x64>
20018542:	f1b2 4fff 	cmp.w	r2, #2139095040	; 0x7f800000
20018546:	d223      	bcs.n	20018590 <scalbnf+0x5c>
20018548:	f013 4fff 	tst.w	r3, #2139095040	; 0x7f800000
2001854c:	d128      	bne.n	200185a0 <scalbnf+0x6c>
2001854e:	ed9d 7a01 	vldr	s14, [sp, #4]
20018552:	eddf 7a2a 	vldr	s15, [pc, #168]	; 200185fc <scalbnf+0xc8>
20018556:	4b2a      	ldr	r3, [pc, #168]	; (20018600 <scalbnf+0xcc>)
20018558:	ee67 7a27 	vmul.f32	s15, s14, s15
2001855c:	4298      	cmp	r0, r3
2001855e:	edcd 7a01 	vstr	s15, [sp, #4]
20018562:	db37      	blt.n	200185d4 <scalbnf+0xa0>
20018564:	9b01      	ldr	r3, [sp, #4]
20018566:	f3c3 52c7 	ubfx	r2, r3, #23, #8
2001856a:	3a19      	subs	r2, #25
2001856c:	4402      	add	r2, r0
2001856e:	2afe      	cmp	r2, #254	; 0xfe
20018570:	dd1a      	ble.n	200185a8 <scalbnf+0x74>
20018572:	ed9f 0a24 	vldr	s0, [pc, #144]	; 20018604 <scalbnf+0xd0>
20018576:	ed9f 7a24 	vldr	s14, [pc, #144]	; 20018608 <scalbnf+0xd4>
2001857a:	9b01      	ldr	r3, [sp, #4]
2001857c:	2b00      	cmp	r3, #0
2001857e:	eef0 7a40 	vmov.f32	s15, s0
20018582:	bfb8      	it	lt
20018584:	eeb0 0a47 	vmovlt.f32	s0, s14
20018588:	ee20 0a27 	vmul.f32	s0, s0, s15
2001858c:	b002      	add	sp, #8
2001858e:	4770      	bx	lr
20018590:	ee30 0a00 	vadd.f32	s0, s0, s0
20018594:	b002      	add	sp, #8
20018596:	4770      	bx	lr
20018598:	ed9d 0a01 	vldr	s0, [sp, #4]
2001859c:	b002      	add	sp, #8
2001859e:	4770      	bx	lr
200185a0:	0dd2      	lsrs	r2, r2, #23
200185a2:	4402      	add	r2, r0
200185a4:	2afe      	cmp	r2, #254	; 0xfe
200185a6:	dce4      	bgt.n	20018572 <scalbnf+0x3e>
200185a8:	2a00      	cmp	r2, #0
200185aa:	dc0b      	bgt.n	200185c4 <scalbnf+0x90>
200185ac:	f112 0f16 	cmn.w	r2, #22
200185b0:	da17      	bge.n	200185e2 <scalbnf+0xae>
200185b2:	f24c 3350 	movw	r3, #50000	; 0xc350
200185b6:	4298      	cmp	r0, r3
200185b8:	dcdb      	bgt.n	20018572 <scalbnf+0x3e>
200185ba:	ed9f 0a14 	vldr	s0, [pc, #80]	; 2001860c <scalbnf+0xd8>
200185be:	ed9f 7a14 	vldr	s14, [pc, #80]	; 20018610 <scalbnf+0xdc>
200185c2:	e7da      	b.n	2001857a <scalbnf+0x46>
200185c4:	f023 43ff 	bic.w	r3, r3, #2139095040	; 0x7f800000
200185c8:	ea43 53c2 	orr.w	r3, r3, r2, lsl #23
200185cc:	ee00 3a10 	vmov	s0, r3
200185d0:	b002      	add	sp, #8
200185d2:	4770      	bx	lr
200185d4:	ed9f 0a0d 	vldr	s0, [pc, #52]	; 2001860c <scalbnf+0xd8>
200185d8:	eddd 7a01 	vldr	s15, [sp, #4]
200185dc:	ee27 0a80 	vmul.f32	s0, s15, s0
200185e0:	e7d8      	b.n	20018594 <scalbnf+0x60>
200185e2:	3219      	adds	r2, #25
200185e4:	f023 43ff 	bic.w	r3, r3, #2139095040	; 0x7f800000
200185e8:	ea43 53c2 	orr.w	r3, r3, r2, lsl #23
200185ec:	eddf 7a09 	vldr	s15, [pc, #36]	; 20018614 <scalbnf+0xe0>
200185f0:	ee07 3a10 	vmov	s14, r3
200185f4:	ee27 0a27 	vmul.f32	s0, s14, s15
200185f8:	e7cc      	b.n	20018594 <scalbnf+0x60>
200185fa:	bf00      	nop
200185fc:	4c000000 	.word	0x4c000000
20018600:	ffff3cb0 	.word	0xffff3cb0
20018604:	7149f2ca 	.word	0x7149f2ca
20018608:	f149f2ca 	.word	0xf149f2ca
2001860c:	0da24260 	.word	0x0da24260
20018610:	8da24260 	.word	0x8da24260
20018614:	33000000 	.word	0x33000000
